(dp1
S'eyetrackerport'
p2
I10000
sS'sweepBit'
p3
I3
sS'random'
p4
I01
sS'stimuluslog'
p5
(lp6
(dp7
S'gray_period'
p8
I00
sS'last_frame_interval'
p9
F0
sS'time'
p10
F0.0017308338165094028
sS'frame'
p11
I0
sS'repetition'
p12
I0
sS'stimuli_type'
p13
S'shape'
p14
sS'stimuli_id'
p15
I5
sS'stimuli shown'
p16
I01
sa(dp17
g8
I00
sg9
F0
sg10
F0.42905691081932673
sg11
I1
sg12
I0
sg13
g14
sg15
I5
sg16
I01
sa(dp18
g8
I00
sg9
F0.016400869208609947
sg10
F0.44515529037562374
sg11
I2
sg12
I0
sg13
g14
sg15
I5
sg16
I01
sa(dp19
g8
I00
sg9
F0.016640352062495367
sg10
F0.46151539047968981
sg11
I3
sg12
I0
sg13
g14
sg15
I5
sg16
I01
sa(dp20
g8
I00
sg9
F0.016653751698413544
sg10
F0.47815745313391744
sg11
I4
sg12
I0
sg13
g14
sg15
I5
sg16
I01
sa(dp21
g8
I00
sg9
F0.01669851218457552
sg10
F0.49488504537930567
sg11
I5
sg12
I0
sg13
g14
sg15
I5
sg16
I01
sa(dp22
g8
I00
sg9
F0.016616688875728869
sg10
F0.51150173425503453
sg11
I6
sg12
I0
sg13
g14
sg15
I5
sg16
I01
sa(dp23
g8
I00
sg9
F0.016681406265888654
sg10
F0.52815662634793625
sg11
I7
sg12
I0
sg13
g14
sg15
I5
sg16
I01
sa(dp24
g8
I00
sg9
F0.016722745568586106
sg10
F0.54517188311638165
sg11
I8
sg12
I0
sg13
g14
sg15
I5
sg16
I01
sa(dp25
g8
I00
sg9
F0.016618969664705219
sg10
F0.56153540440391225
sg11
I9
sg12
I0
sg13
g14
sg15
I5
sg16
I01
sa(dp26
g8
I00
sg9
F0.016641207358588872
sg10
F0.57826157115596288
sg11
I10
sg12
I0
sg13
g14
sg15
I5
sg16
I01
sa(dp27
g8
I00
sg9
F0.01663978186525128
sg10
F0.59478702846809028
sg11
I11
sg12
I0
sg13
g14
sg15
I5
sg16
I01
sa(dp28
g8
I00
sg9
F0.016672568208377925
sg10
F0.61147185591789821
sg11
I12
sg12
I0
sg13
g14
sg15
I5
sg16
I01
sa(dp29
g8
I00
sg9
F0.01667114271549508
sg10
F0.62811420367097526
sg11
I13
sg12
I0
sg13
g14
sg15
I5
sg16
I01
sa(dp30
g8
I00
sg9
F0.016559669148591638
sg10
F0.6446051640486985
sg11
I14
sg12
I0
sg13
g14
sg15
I5
sg16
I01
sa(dp31
g8
I00
sg9
F0.01680941555332538
sg10
F0.66144194907110432
sg11
I15
sg12
I0
sg13
g14
sg15
I5
sg16
I01
sa(dp32
g8
I00
sg9
F0.016537146356768062
sg10
F0.6778356908139358
sg11
I16
sg12
I0
sg13
g14
sg15
I5
sg16
I01
sa(dp33
g8
I00
sg9
F0.016863014096998086
sg10
F0.69488915079955405
sg11
I17
sg12
I0
sg13
g14
sg15
I5
sg16
I01
sa(dp34
g8
I00
sg9
F0.016493811363943678
sg10
F0.71123727676058479
sg11
I18
sg12
I0
sg13
g14
sg15
I5
sg16
I01
sa(dp35
g8
I00
sg9
F0.01660157864807843
sg10
F0.7277935247257119
sg11
I19
sg12
I0
sg13
g14
sg15
I5
sg16
I01
sa(dp36
g8
I00
sg9
F0.016647764627123252
sg10
F0.74438997159859355
sg11
I20
sg12
I0
sg13
g14
sg15
I5
sg16
I01
sa(dp37
g8
I00
sg9
F0.016655177191751136
sg10
F0.76087494490457175
sg11
I21
sg12
I0
sg13
g14
sg15
I5
sg16
I01
sa(dp38
g8
I00
sg9
F0.016740706782456982
sg10
F0.77761992816658676
sg11
I22
sg12
I0
sg13
g14
sg15
I5
sg16
I01
sa(dp39
g8
I00
sg9
F0.016751255431699974
sg10
F0.79446840223317849
sg11
I23
sg12
I0
sg13
g14
sg15
I5
sg16
I01
sa(dp40
g8
I00
sg9
F0.016664585446505953
sg10
F0.81142378828781148
sg11
I24
sg12
I0
sg13
g14
sg15
I5
sg16
I01
sa(dp41
g8
I00
sg9
F0.016494381561187765
sg10
F0.82752473373193425
sg11
I25
sg12
I0
sg13
g14
sg15
I5
sg16
I01
sa(dp42
g8
I00
sg9
F0.016758097799083771
sg10
F0.84472473441655893
sg11
I26
sg12
I0
sg13
g14
sg15
I5
sg16
I01
sa(dp43
g8
I00
sg9
F0.016662019559134933
sg10
F0.86138561358075094
sg11
I27
sg12
I0
sg13
g14
sg15
I5
sg16
I01
sa(dp44
g8
I00
sg9
F0.016650900712193106
sg10
F0.87802425505151405
sg11
I28
sg12
I0
sg13
g14
sg15
I5
sg16
I01
sa(dp45
g8
I00
sg9
F0.016666866235482303
sg10
F0.89467772165153292
sg11
I29
sg12
I0
sg13
g14
sg15
I5
sg16
I01
sa(dp46
g8
I00
sg9
F0.016652041106681281
sg10
F0.91141928372962866
sg11
I30
sg12
I0
sg13
g14
sg15
I5
sg16
I01
sa(dp47
g8
I00
sg9
F0.016670572517796245
sg10
F0.927684731086174
sg11
I31
sg12
I0
sg13
g14
sg15
I5
sg16
I01
sa(dp48
g8
I00
sg9
F0.016652326205530699
sg10
F0.94433249571329725
sg11
I32
sg12
I0
sg13
g14
sg15
I5
sg16
I01
sa(dp49
g8
I00
sg9
F0.016700792973097123
sg10
F0.96103870556089532
sg11
I33
sg12
I0
sg13
g14
sg15
I5
sg16
I01
sa(dp50
g8
I00
sg9
F0.016836785022860568
sg10
F0.97786494193405815
sg11
I34
sg12
I0
sg13
g14
sg15
I5
sg16
I01
sa(dp51
g8
I00
sg9
F0.016417404929597978
sg10
F0.99422960361607693
sg11
I35
sg12
I0
sg13
g14
sg15
I5
sg16
I01
sa(dp52
g8
I00
sg9
F0.016718754187422746
sg10
F1.0109489280007438
sg11
I36
sg12
I0
sg13
g14
sg15
I5
sg16
I00
sa(dp53
g8
I00
sg9
F0.016645768936541572
sg10
F1.0276018244030638
sg11
I37
sg12
I0
sg13
g14
sg15
I5
sg16
I00
sa(dp54
g8
I00
sg9
F0.016678555279668217
sg10
F1.0442723969213148
sg11
I38
sg12
I0
sg13
g14
sg15
I5
sg16
I00
sa(dp55
g8
I00
sg9
F0.016677129786785372
sg10
F1.0610148142950493
sg11
I39
sg12
I0
sg13
g14
sg15
I5
sg16
I00
sa(dp56
g8
I00
sg9
F0.016697656888027268
sg10
F1.0777643591354718
sg11
I40
sg12
I0
sg13
g14
sg15
I5
sg16
I00
sa(dp57
g8
I00
sg9
F0.016641777555832959
sg10
F1.0943468361747364
sg11
I41
sg12
I0
sg13
g14
sg15
I5
sg16
I00
sa(dp58
g8
I00
sg9
F0.016650900712193106
sg10
F1.1109926051117327
sg11
I42
sg12
I0
sg13
g14
sg15
I5
sg16
I00
sa(dp59
g8
I00
sg9
F0.016660594065797341
sg10
F1.1276694497996687
sg11
I43
sg12
I0
sg13
g14
sg15
I5
sg16
I00
sa(dp60
g8
I00
sg9
F0.016686538041540189
sg10
F1.1443442987970229
sg11
I44
sg12
I0
sg13
g14
sg15
I5
sg16
I00
sa(dp61
g8
I00
sg9
F0.016618969664705219
sg10
F1.1609646939550657
sg11
I45
sg12
I0
sg13
g14
sg15
I5
sg16
I00
sa(dp62
g8
I00
sg9
F0.016667151334786467
sg10
F1.1776281390070835
sg11
I46
sg12
I0
sg13
g14
sg15
I5
sg16
I00
sa(dp63
g8
I00
sg9
F0.016686823139934859
sg10
F1.1943200939226699
sg11
I47
sg12
I0
sg13
g14
sg15
I5
sg16
I00
sa(dp64
g8
I00
sg9
F0.016617259072972956
sg10
F1.2109293702342256
sg11
I48
sg12
I0
sg13
g14
sg15
I5
sg16
I00
sa(dp65
g8
I00
sg9
F0.016689389028215373
sg10
F1.2276244612348819
sg11
I49
sg12
I0
sg13
g14
sg15
I5
sg16
I00
sa(dp66
g8
I00
sg9
F0.016684827449807926
sg10
F1.2443822739351162
sg11
I50
sg12
I0
sg13
g14
sg15
I5
sg16
I00
sa(dp67
g8
I00
sg9
F0.016555107570184191
sg10
F1.260874089608933
sg11
I51
sg12
I0
sg13
g14
sg15
I5
sg16
I00
sa(dp68
g8
I00
sg9
F0.016733579316678515
sg10
F1.2775435217322411
sg11
I52
sg12
I0
sg13
g14
sg15
I5
sg16
I00
sa(dp69
g8
I00
sg9
F0.016692810211679898
sg10
F1.2942902155859883
sg11
I53
sg12
I0
sg13
g14
sg15
I5
sg16
I00
sa(dp70
g8
I00
sg9
F0.016646909331029747
sg10
F1.3109337037335536
sg11
I54
sg12
I0
sg13
g14
sg15
I5
sg16
I00
sa(dp71
g8
I00
sg9
F0.016666581137087633
sg10
F1.3276008550678853
sg11
I55
sg12
I0
sg13
g14
sg15
I5
sg16
I00
sa(dp72
g8
I00
sg9
F0.016669717222157487
sg10
F1.3442700020927987
sg11
I56
sg12
I0
sg13
g14
sg15
I5
sg16
I00
sa(dp73
g8
I00
sg9
F0.016634650090054492
sg10
F1.3609035117879102
sg11
I57
sg12
I0
sg13
g14
sg15
I5
sg16
I00
sa(dp74
g8
I00
sg9
F0.016677985082424129
sg10
F1.3776487801483199
sg11
I58
sg12
I0
sg13
g14
sg15
I5
sg16
I00
sa(dp75
g8
I00
sg9
F0.016665725840994128
sg10
F1.39425235448698
sg11
I59
sg12
I0
sg13
g14
sg15
I5
sg16
I00
sa(dp76
g8
I00
sg9
F0.016600723352439672
sg10
F1.4109163697362419
sg11
I60
sg12
I0
sg13
g14
sg15
I5
sg16
I00
sa(dp77
g8
I00
sg9
F0.016658598375215661
sg10
F1.4275190887792633
sg11
I61
sg12
I0
sg13
g14
sg15
I5
sg16
I00
sa(dp78
g8
I00
sg9
F0.016675134096203692
sg10
F1.4441819636340369
sg11
I62
sg12
I0
sg13
g14
sg15
I5
sg16
I00
sa(dp79
g8
I00
sg9
F0.016690529422248801
sg10
F1.4608687867739718
sg11
I63
sg12
I0
sg13
g14
sg15
I5
sg16
I00
sa(dp80
g8
I00
sg9
F0.016689674126610043
sg10
F1.4775610267884076
sg11
I64
sg12
I0
sg13
g14
sg15
I5
sg16
I00
sa(dp81
g8
I00
sg9
F0.016652041106681281
sg10
F1.4945380803396802
sg11
I65
sg12
I0
sg13
g14
sg15
I5
sg16
I00
sa(dp82
g8
I00
sg9
F0.016610986903287994
sg10
F1.5111407993822468
sg11
I66
sg12
I0
sg13
g14
sg15
I5
sg16
I00
sa(dp83
g8
I00
sg9
F0.016609846508345072
sg10
F1.5274336162083273
sg11
I67
sg12
I0
sg13
g14
sg15
I5
sg16
I00
sa(dp84
g8
I00
sg9
F0.016742987571433332
sg10
F1.5441962755853638
sg11
I68
sg12
I0
sg13
g14
sg15
I5
sg16
I00
sa(dp85
g8
I00
sg9
F0.016662019559134933
sg10
F1.5608474613964063
sg11
I69
sg12
I0
sg13
g14
sg15
I5
sg16
I00
sa(dp86
g8
I00
sg9
F0.016638071273519017
sg10
F1.5774784052036921
sg11
I70
sg12
I0
sg13
g14
sg15
I5
sg16
I00
sa(dp87
g8
I00
sg9
F0.016689959225004714
sg10
F1.5941677942319075
sg11
I71
sg12
I0
sg13
g14
sg15
I5
sg16
I00
sa(dp88
g8
I00
sg9
F0.016683401956470334
sg10
F1.6108543322734477
sg11
I72
sg12
I0
sg13
g14
sg15
I5
sg16
I00
sa(dp89
g8
I00
sg9
F0.016647764627123252
sg10
F1.6275810692222876
sg11
I73
sg12
I0
sg13
g14
sg15
I5
sg16
I00
sa(dp90
g8
I00
sg9
F0.016596446872881643
sg10
F1.6441165049873234
sg11
I74
sg12
I0
sg13
g14
sg15
I5
sg16
I00
sa(dp91
g8
I00
sg9
F0.016684827449807926
sg10
F1.6607762437570273
sg11
I75
sg12
I0
sg13
g14
sg15
I5
sg16
I00
sa(dp92
g8
I00
sg9
F0.016646624232635077
sg10
F1.6774359825267311
sg11
I76
sg12
I0
sg13
g14
sg15
I5
sg16
I00
sa(dp93
g8
I00
sg9
F0.016662589755924273
sg10
F1.6940885938306565
sg11
I77
sg12
I0
sg13
g14
sg15
I5
sg16
I00
sa(dp94
g8
I00
sg9
F0.016649760317704931
sg10
F1.7107377839511173
sg11
I78
sg12
I0
sg13
g14
sg15
I5
sg16
I00
sa(dp95
g8
I00
sg9
F0.016657457980727486
sg10
F1.7274020842992286
sg11
I79
sg12
I0
sg13
g14
sg15
I5
sg16
I00
sa(dp96
g8
I00
sg9
F0.0166691470249134
sg10
F1.7441342381221148
sg11
I80
sg12
I0
sg13
g14
sg15
I5
sg16
I00
sa(dp97
g8
I00
sg9
F0.016646909331029747
sg10
F1.7607158598661954
sg11
I81
sg12
I0
sg13
g14
sg15
I5
sg16
I00
sa(dp98
g8
I00
sg9
F0.016685397647052014
sg10
F1.7774041084994678
sg11
I82
sg12
I0
sg13
g14
sg15
I5
sg16
I00
sa(dp99
g8
I00
sg9
F0.016647479528728581
sg10
F1.7940438903647191
sg11
I83
sg12
I0
sg13
g14
sg15
I5
sg16
I00
sa(dp100
g8
I00
sg9
F0.016855031335126114
sg10
F1.810901487587671
sg11
I84
sg12
I0
sg13
g14
sg15
I5
sg16
I00
sa(dp101
g8
I00
sg9
F0.01642795357884097
sg10
F1.8273619424112439
sg11
I85
sg12
I0
sg13
g14
sg15
I5
sg16
I00
sa(dp102
g8
I00
sg9
F0.016767791152688005
sg10
F1.8440955217274677
sg11
I86
sg12
I0
sg13
g14
sg15
I5
sg16
I00
sa(dp103
g8
I00
sg9
F0.016651185811042524
sg10
F1.8607458522424167
sg11
I87
sg12
I0
sg13
g14
sg15
I5
sg16
I00
sa(dp104
g8
I00
sg9
F0.0164727140645482
sg10
F1.8772259788720476
sg11
I88
sg12
I0
sg13
g14
sg15
I5
sg16
I00
sa(dp105
g8
I00
sg9
F0.016856171730069036
sg10
F1.8940778741221038
sg11
I89
sg12
I0
sg13
g14
sg15
I5
sg16
I00
sa(dp106
g8
I00
sg9
F0.016670572517796245
sg10
F1.9108157299178856
sg11
I90
sg12
I0
sg13
g14
sg15
I5
sg16
I00
sa(dp107
g8
I00
sg9
F0.016649190120460844
sg10
F1.9273976367603609
sg11
I91
sg12
I0
sg13
g14
sg15
I5
sg16
I00
sa(dp108
g8
I00
sg9
F0.016583332335358136
sg10
F1.9439861008713706
sg11
I92
sg12
I0
sg13
g14
sg15
I5
sg16
I00
sa(dp109
g8
I00
sg9
F0.016714192609470047
sg10
F1.96070086367763
sg11
I93
sg12
I0
sg13
g14
sg15
I5
sg16
I00
sa(dp110
g8
I00
sg9
F0.016623246144263248
sg10
F1.9773355137676845
sg11
I94
sg12
I0
sg13
g14
sg15
I5
sg16
I00
sa(dp111
g8
I00
sg9
F0.016659453671309166
sg10
F1.9939767211262733
sg11
I95
sg12
I0
sg13
g14
sg15
I5
sg16
I00
sa(dp112
g8
I00
sg9
F0.016658028177971573
sg10
F2.0106490042358018
sg11
I96
sg12
I0
sg13
g14
sg15
I0
sg16
I01
sa(dp113
g8
I00
sg9
F0.016661449361436098
sg10
F2.0273076026114722
sg11
I97
sg12
I0
sg13
g14
sg15
I0
sg16
I01
sa(dp114
g8
I00
sg9
F0.01666487054535537
sg10
F2.0439713327618847
sg11
I98
sg12
I0
sg13
g14
sg15
I0
sg16
I01
sa(dp115
g8
I00
sg9
F0.016682546660831576
sg10
F2.0606518837321346
sg11
I99
sg12
I0
sg13
g14
sg15
I0
sg16
I01
sa(dp116
g8
I00
sg9
F0.016645198739297484
sg10
F2.077376339892453
sg11
I100
sg12
I0
sg13
g14
sg15
I0
sg16
I01
sa(dp117
g8
I00
sg9
F0.016720179680305591
sg10
F2.0940149813632161
sg11
I101
sg12
I0
sg13
g14
sg15
I0
sg16
I01
sa(dp118
g8
I00
sg9
F0.016552256584418501
sg10
F2.1105757909062959
sg11
I102
sg12
I0
sg13
g14
sg15
I0
sg16
I01
sa(dp119
g8
I00
sg9
F0.016713622411771212
sg10
F2.1272817156550445
sg11
I103
sg12
I0
sg13
g14
sg15
I0
sg16
I01
sa(dp120
g8
I00
sg9
F0.01666287485477369
sg10
F2.1439405991291096
sg11
I104
sg12
I0
sg13
g14
sg15
I0
sg16
I01
sa(dp121
g8
I00
sg9
F0.016704784354260482
sg10
F2.1606599235137764
sg11
I105
sg12
I0
sg13
g14
sg15
I0
sg16
I01
sa(dp122
g8
I00
sg9
F0.016559384050196968
sg10
F2.1772144608871713
sg11
I106
sg12
I0
sg13
g14
sg15
I0
sg16
I01
sa(dp123
g8
I00
sg9
F0.016740136585212895
sg10
F2.1939520315845584
sg11
I107
sg12
I0
sg13
g14
sg15
I0
sg16
I01
sa(dp124
g8
I00
sg9
F0.016687963534877781
sg10
F2.2106337229492965
sg11
I108
sg12
I0
sg13
g14
sg15
I0
sg16
I01
sa(dp125
g8
I00
sg9
F0.01667171291228442
sg10
F2.2273145590179411
sg11
I109
sg12
I0
sg13
g14
sg15
I0
sg16
I01
sa(dp126
g8
I00
sg9
F0.016661734460285516
sg10
F2.2440458575451885
sg11
I110
sg12
I0
sg13
g14
sg15
I0
sg16
I01
sa(dp127
g8
I00
sg9
F0.016651470909437194
sg10
F2.2606271941904197
sg11
I111
sg12
I0
sg13
g14
sg15
I0
sg16
I01
sa(dp128
g8
I00
sg9
F0.01666943212330807
sg10
F2.277287788256217
sg11
I112
sg12
I0
sg13
g14
sg15
I0
sg16
I01
sa(dp129
g8
I00
sg9
F0.016648334824367339
sg10
F2.2939361230805844
sg11
I113
sg12
I0
sg13
g14
sg15
I0
sg16
I01
sa(dp130
g8
I00
sg9
F0.016667721531575808
sg10
F2.3105989979353581
sg11
I114
sg12
I0
sg13
g14
sg15
I0
sg16
I01
sa(dp131
g8
I00
sg9
F0.016676559589541284
sg10
F2.3272815445957349
sg11
I115
sg12
I0
sg13
g14
sg15
I0
sg16
I01
sa(dp132
g8
I00
sg9
F0.01663750107627493
sg10
F2.3439130586007195
sg11
I116
sg12
I0
sg13
g14
sg15
I0
sg16
I01
sa(dp133
g8
I00
sg9
F0.016870996858870058
sg10
F2.3607857660513218
sg11
I117
sg12
I0
sg13
g14
sg15
I0
sg16
I01
sa(dp134
g8
I00
sg9
F0.016431374762760242
sg10
F2.3772869899798934
sg11
I118
sg12
I0
sg13
g14
sg15
I0
sg16
I01
sa(dp135
g8
I00
sg9
F0.016638926569157775
sg10
F2.3938788752743676
sg11
I119
sg12
I0
sg13
g14
sg15
I0
sg16
I01
sa(dp136
g8
I00
sg9
F0.016715618102352892
sg10
F2.41065322369559
sg11
I120
sg12
I0
sg13
g14
sg15
I0
sg16
I01
sa(dp137
g8
I00
sg9
F0.016646624232635077
sg10
F2.4272419729054491
sg11
I121
sg12
I0
sg13
g14
sg15
I0
sg16
I01
sa(dp138
g8
I00
sg9
F0.016666581137087633
sg10
F2.4438905928282111
sg11
I122
sg12
I0
sg13
g14
sg15
I0
sg16
I01
sa(dp139
g8
I00
sg9
F0.016670572518250992
sg10
F2.4605557484724159
sg11
I123
sg12
I0
sg13
g14
sg15
I0
sg16
I01
sa(dp140
g8
I00
sg9
F0.016654321895657631
sg10
F2.4772177680310961
sg11
I124
sg12
I0
sg13
g14
sg15
I0
sg16
I01
sa(dp141
g8
I00
sg9
F0.016658598375215661
sg10
F2.4938686687432892
sg11
I125
sg12
I0
sg13
g14
sg15
I0
sg16
I01
sa(dp142
g8
I00
sg9
F0.016595591576788138
sg10
F2.5104702473913676
sg11
I126
sg12
I0
sg13
g14
sg15
I0
sg16
I01
sa(dp143
g8
I00
sg9
F0.016723600864224863
sg10
F2.5272004055241268
sg11
I127
sg12
I0
sg13
g14
sg15
I0
sg16
I01
sa(dp144
g8
I00
sg9
F0.016672853306772595
sg10
F2.5438712631407725
sg11
I128
sg12
I0
sg13
g14
sg15
I0
sg16
I01
sa(dp145
g8
I00
sg9
F0.016652611304380116
sg10
F2.5605272956286171
sg11
I129
sg12
I0
sg13
g14
sg15
I0
sg16
I01
sa(dp146
g8
I00
sg9
F0.016648905021611426
sg10
F2.5772335054757605
sg11
I130
sg12
I0
sg13
g14
sg15
I0
sg16
I01
sa(dp147
g8
I00
sg9
F0.016657172881878068
sg10
F2.5938271013624217
sg11
I131
sg12
I0
sg13
g14
sg15
I0
sg16
I01
sa(dp148
g8
I00
sg9
F0.016656602685088728
sg10
F2.6104839891459051
sg11
I132
sg12
I0
sg13
g14
sg15
I0
sg16
I01
sa(dp149
g8
I00
sg9
F0.016638641470763105
sg10
F2.6271326090686671
sg11
I133
sg12
I0
sg13
g14
sg15
I0
sg16
I01
sa(dp150
g8
I00
sg9
F0.01667598939184245
sg10
F2.6438314063516373
sg11
I134
sg12
I0
sg13
g14
sg15
I0
sg16
I01
sa(dp151
g8
I00
sg9
F0.01660385943705478
sg10
F2.6604173045748212
sg11
I135
sg12
I0
sg13
g14
sg15
I0
sg16
I01
sa(dp152
g8
I00
sg9
F0.016758667996782606
sg10
F2.6771534497788707
sg11
I136
sg12
I0
sg13
g14
sg15
I0
sg16
I01
sa(dp153
g8
I00
sg9
F0.016524602016488643
sg10
F2.6936814729792786
sg11
I137
sg12
I0
sg13
g14
sg15
I0
sg16
I01
sa(dp154
g8
I00
sg9
F0.016788318254384649
sg10
F2.7104686508391751
sg11
I138
sg12
I0
sg13
g14
sg15
I0
sg16
I01
sa(dp155
g8
I00
sg9
F0.016663159953623108
sg10
F2.7271298151022165
sg11
I139
sg12
I0
sg13
g14
sg15
I0
sg16
I01
sa(dp156
g8
I00
sg9
F0.016649475218855514
sg10
F2.7438448630073253
sg11
I140
sg12
I0
sg13
g14
sg15
I0
sg16
I01
sa(dp157
g8
I00
sg9
F0.016670572517796245
sg10
F2.7604490075432295
sg11
I141
sg12
I0
sg13
g14
sg15
I0
sg16
I01
sa(dp158
g8
I00
sg9
F0.016654036797262961
sg10
F2.7771058953267129
sg11
I142
sg12
I0
sg13
g14
sg15
I0
sg16
I01
sa(dp159
g8
I00
sg9
F0.016575064475091494
sg10
F2.7936724068426884
sg11
I143
sg12
I0
sg13
g14
sg15
I0
sg16
I01
sa(dp160
g8
I00
sg9
F0.016728447541026981
sg10
F2.8104151093152723
sg11
I144
sg12
I0
sg13
g14
sg15
I0
sg16
I01
sa(dp161
g8
I00
sg9
F0.016677129786330624
sg10
F2.8270851116358244
sg11
I145
sg12
I0
sg13
g14
sg15
I0
sg16
I01
sa(dp162
g8
I00
sg9
F0.016670002321006905
sg10
F2.8437573947458077
sg11
I146
sg12
I0
sg13
g14
sg15
I0
sg16
I01
sa(dp163
g8
I00
sg9
F0.016650615613343689
sg10
F2.860405729570175
sg11
I147
sg12
I0
sg13
g14
sg15
I0
sg16
I01
sa(dp164
g8
I00
sg9
F0.016661164263041428
sg10
F2.877064042846996
sg11
I148
sg12
I0
sg13
g14
sg15
I0
sg16
I01
sa(dp165
g8
I00
sg9
F0.016661734460285516
sg10
F2.8937303388852342
sg11
I149
sg12
I0
sg13
g14
sg15
I0
sg16
I01
sa(dp166
g8
I00
sg9
F0.016630373610041715
sg10
F2.9104479526781688
sg11
I150
sg12
I0
sg13
g14
sg15
I0
sg16
I01
sa(dp167
g8
I00
sg9
F0.016749544840422459
sg10
F2.9271062659549898
sg11
I151
sg12
I0
sg13
g14
sg15
I0
sg16
I01
sa(dp168
g8
I00
sg9
F0.016496662350164115
sg10
F2.9436690711886513
sg11
I152
sg12
I0
sg13
g14
sg15
I0
sg16
I01
sa(dp169
g8
I00
sg9
F0.016721320074793766
sg10
F2.9603299503528433
sg11
I153
sg12
I0
sg13
g14
sg15
I0
sg16
I01
sa(dp170
g8
I00
sg9
F0.016657172882332816
sg10
F2.9769768596843278
sg11
I154
sg12
I0
sg13
g14
sg15
I0
sg16
I01
sa(dp171
g8
I00
sg9
F0.01666715133433172
sg10
F2.9936497129911004
sg11
I155
sg12
I0
sg13
g14
sg15
I0
sg16
I01
sa(dp172
g8
I00
sg9
F0.01663978186525128
sg10
F3.0102963372237355
sg11
I156
sg12
I0
sg13
g14
sg15
I0
sg16
I00
sa(dp173
g8
I00
sg9
F0.016649760317704931
sg10
F3.0269338383000104
sg11
I157
sg12
I0
sg13
g14
sg15
I0
sg16
I00
sa(dp174
g8
I00
sg9
F0.016692240014435811
sg10
F3.0436252230183527
sg11
I158
sg12
I0
sg13
g14
sg15
I0
sg16
I00
sa(dp175
g8
I00
sg9
F0.01663978186525128
sg10
F3.0602769790261846
sg11
I159
sg12
I0
sg13
g14
sg15
I0
sg16
I00
sa(dp176
g8
I00
sg9
F0.016657457980727486
sg10
F3.0769951630163632
sg11
I160
sg12
I0
sg13
g14
sg15
I0
sg16
I00
sa(dp177
g8
I00
sg9
F0.016688818830516539
sg10
F3.0936198346539641
sg11
I161
sg12
I0
sg13
g14
sg15
I0
sg16
I00
sa(dp178
g8
I00
sg9
F0.016640352062495367
sg10
F3.1102636079003787
sg11
I162
sg12
I0
sg13
g14
sg15
I0
sg16
I00
sa(dp179
g8
I00
sg9
F0.016650615613798436
sg10
F3.1271651103133991
sg11
I163
sg12
I0
sg13
g14
sg15
I0
sg16
I00
sa(dp180
g8
I00
sg9
F0.016744983261560265
sg10
F3.1436512240138654
sg11
I164
sg12
I0
sg13
g14
sg15
I0
sg16
I00
sa(dp181
g8
I00
sg9
F0.016664300348111283
sg10
F3.1603186604470466
sg11
I165
sg12
I0
sg13
g14
sg15
I0
sg16
I00
sa(dp182
g8
I00
sg9
F0.016646054035390989
sg10
F3.1769587274106925
sg11
I166
sg12
I0
sg13
g14
sg15
I0
sg16
I00
sa(dp183
g8
I00
sg9
F0.016674278800110187
sg10
F3.1936324360140134
sg11
I167
sg12
I0
sg13
g14
sg15
I0
sg16
I00
sa(dp184
g8
I00
sg9
F0.0166332245967169
sg10
F3.2102753539643345
sg11
I168
sg12
I0
sg13
g14
sg15
I0
sg16
I00
sa(dp185
g8
I00
sg9
F0.016616118678484781
sg10
F3.2269037318842493
sg11
I169
sg12
I0
sg13
g14
sg15
I0
sg16
I00
sa(dp186
g8
I00
sg9
F0.016672568208377925
sg10
F3.2436256221562871
sg11
I170
sg12
I0
sg13
g14
sg15
I0
sg16
I00
sa(dp187
g8
I00
sg9
F0.016650900712193106
sg10
F3.2602072439003678
sg11
I171
sg12
I0
sg13
g14
sg15
I0
sg16
I00
sa(dp188
g8
I00
sg9
F0.01666258975637902
sg10
F3.2768706889523855
sg11
I172
sg12
I0
sg13
g14
sg15
I0
sg16
I00
sa(dp189
g8
I00
sg9
F0.016653181501169456
sg10
F3.2935538058100065
sg11
I173
sg12
I0
sg13
g14
sg15
I0
sg16
I00
sa(dp190
g8
I00
sg9
F0.016662304657529603
sg10
F3.3101841794205029
sg11
I174
sg12
I0
sg13
g14
sg15
I0
sg16
I00
sa(dp191
g8
I00
sg9
F0.016663730150867195
sg10
F3.3268610241084389
sg11
I175
sg12
I0
sg13
g14
sg15
I0
sg16
I00
sa(dp192
g8
I00
sg9
F0.016656887783483398
sg10
F3.3435199075825039
sg11
I176
sg12
I0
sg13
g14
sg15
I0
sg16
I00
sa(dp193
g8
I00
sg9
F0.016660308966947923
sg10
F3.3601676722096272
sg11
I177
sg12
I0
sg13
g14
sg15
I0
sg16
I00
sa(dp194
g8
I00
sg9
F0.016665440742599458
sg10
F3.3768316874588891
sg11
I178
sg12
I0
sg13
g14
sg15
I0
sg16
I00
sa(dp195
g8
I00
sg9
F0.016667721531575808
sg10
F3.3935110980346508
sg11
I179
sg12
I0
sg13
g14
sg15
I0
sg16
I00
sa(dp196
g8
I00
sg9
F0.016584757828695729
sg10
F3.4101500246038086
sg11
I180
sg12
I0
sg13
g14
sg15
I0
sg16
I00
sa(dp197
g8
I00
sg9
F0.016734149513467855
sg10
F3.4268334265607336
sg11
I181
sg12
I0
sg13
g14
sg15
I0
sg16
I00
sa(dp198
g8
I00
sg9
F0.016656602685088728
sg10
F3.4434846123713214
sg11
I182
sg12
I0
sg13
g14
sg15
I0
sg16
I00
sa(dp199
g8
I00
sg9
F0.016661734460285516
sg10
F3.4601375087740962
sg11
I183
sg12
I0
sg13
g14
sg15
I0
sg16
I00
sa(dp200
g8
I00
sg9
F0.016673138405622012
sg10
F3.4768625351312039
sg11
I184
sg12
I0
sg13
g14
sg15
I0
sg16
I00
sa(dp201
g8
I00
sg9
F0.016598157464613905
sg10
F3.4934427313819469
sg11
I185
sg12
I0
sg13
g14
sg15
I0
sg16
I00
sa(dp202
g8
I00
sg9
F0.016750685234455887
sg10
F3.5101597749771827
sg11
I186
sg12
I0
sg13
g14
sg15
I0
sg16
I00
sa(dp203
g8
I00
sg9
F0.016626382229333103
sg10
F3.5267844466147835
sg11
I187
sg12
I0
sg13
g14
sg15
I0
sg16
I00
sa(dp204
g8
I00
sg9
F0.016650900712193106
sg10
F3.5434527383440582
sg11
I188
sg12
I0
sg13
g14
sg15
I0
sg16
I00
sa(dp205
g8
I00
sg9
F0.016647764627123252
sg10
F3.5601033539574019
sg11
I189
sg12
I0
sg13
g14
sg15
I0
sg16
I00
sa(dp206
g8
I00
sg9
F0.016683972153714421
sg10
F3.5768375034708697
sg11
I190
sg12
I0
sg13
g14
sg15
I0
sg16
I00
sa(dp207
g8
I00
sg9
F0.01667114271549508
sg10
F3.5934493456702512
sg11
I191
sg12
I0
sg13
g14
sg15
I0
sg16
I00
sa(dp208
g8
I00
sg9
F0.016700792973097123
sg10
F3.6101507088405924
sg11
I192
sg12
I0
sg13
g14
sg15
I0
sg16
I00
sa(dp209
g8
I00
sg9
F0.016618399467915879
sg10
F3.6267628361383686
sg11
I193
sg12
I0
sg13
g14
sg15
I0
sg16
I00
sa(dp210
g8
I00
sg9
F0.016669717222157487
sg10
F3.6434413914180368
sg11
I194
sg12
I0
sg13
g14
sg15
I0
sg16
I00
sa(dp211
g8
I00
sg9
F0.016649760317250184
sg10
F3.6600831689738698
sg11
I195
sg12
I0
sg13
g14
sg15
I0
sg16
I00
sa(dp212
g8
I00
sg9
F0.016663445052017778
sg10
F3.6767571626755853
sg11
I196
sg12
I0
sg13
g14
sg15
I0
sg16
I00
sa(dp213
g8
I00
sg9
F0.016717043595690484
sg10
F3.6934744913696704
sg11
I197
sg12
I0
sg13
g14
sg15
I0
sg16
I00
sa(dp214
g8
I00
sg9
F0.01660557002924179
sg10
F3.7100754998205048
sg11
I198
sg12
I0
sg13
g14
sg15
I0
sg16
I00
sa(dp215
g8
I00
sg9
F0.016662304657529603
sg10
F3.7267286813216742
sg11
I199
sg12
I0
sg13
g14
sg15
I0
sg16
I00
sa(dp216
g8
I00
sg9
F0.016647479528273834
sg10
F3.7434508566930162
sg11
I200
sg12
I0
sg13
g14
sg15
I0
sg16
I00
sa(dp217
g8
I00
sg9
F0.016640637161344785
sg10
F3.7600906385582675
sg11
I201
sg12
I0
sg13
g14
sg15
I0
sg16
I00
sa(dp218
g8
I00
sg9
F0.016809700652174797
sg10
F3.7768259284662236
sg11
I202
sg12
I0
sg13
g14
sg15
I0
sg16
I00
sa(dp219
g8
I00
sg9
F0.016610416706043907
sg10
F3.7934474640192093
sg11
I203
sg12
I0
sg13
g14
sg15
I0
sg16
I00
sa(dp220
g8
I00
sg9
F0.016611272001682664
sg10
F3.8100533191468458
sg11
I204
sg12
I0
sg13
g14
sg15
I0
sg16
I00
sa(dp221
g8
I00
sg9
F0.01667171291228442
sg10
F3.8267179045933517
sg11
I205
sg12
I0
sg13
g14
sg15
I0
sg16
I00
sa(dp222
g8
I00
sg9
F0.016647194429879164
sg10
F3.8433727966862534
sg11
I206
sg12
I0
sg13
g14
sg15
I0
sg16
I00
sa(dp223
g8
I00
sg9
F0.016668861926063983
sg10
F3.8600396629221905
sg11
I207
sg12
I0
sg13
g14
sg15
I0
sg16
I00
sa(dp224
g8
I00
sg9
F0.016676559589541284
sg10
F3.8767202138924404
sg11
I208
sg12
I0
sg13
g14
sg15
I0
sg16
I00
sa(dp225
g8
I00
sg9
F0.016629233216008288
sg10
F3.8933511577001809
sg11
I209
sg12
I0
sg13
g14
sg15
I0
sg16
I00
sa(dp226
g8
I00
sg9
F0.01663151400452989
sg10
F3.9100559420544414
sg11
I210
sg12
I0
sg13
g14
sg15
I0
sg16
I00
sa(dp227
g8
I00
sg9
F0.016680265871855227
sg10
F3.9266646481682983
sg11
I211
sg12
I0
sg13
g14
sg15
I0
sg16
I00
sa(dp228
g8
I00
sg9
F0.016608991212706314
sg10
F3.9432767754660745
sg11
I212
sg12
I0
sg13
g14
sg15
I0
sg16
I00
sa(dp229
g8
I00
sg9
F0.016751540530549391
sg10
F3.960020903431996
sg11
I213
sg12
I0
sg13
g14
sg15
I0
sg16
I00
sa(dp230
g8
I00
sg9
F0.016682546660376829
sg10
F3.9767065861774427
sg11
I214
sg12
I0
sg13
g14
sg15
I0
sg16
I00
sa(dp231
g8
I00
sg9
F0.016644628542053397
sg10
F3.993356631593997
sg11
I215
sg12
I0
sg13
g14
sg15
I0
sg16
I00
sa(dp232
g8
I00
sg9
F0.016667721532030555
sg10
F4.0100126640813869
sg11
I216
sg12
I0
sg13
g14
sg15
I3
sg16
I01
sa(dp233
g8
I00
sg9
F0.016676559589086537
sg10
F4.0266992021229271
sg11
I217
sg12
I0
sg13
g14
sg15
I3
sg16
I01
sa(dp234
g8
I00
sg9
F0.016624386539206171
sg10
F4.0433178866892376
sg11
I218
sg12
I0
sg13
g14
sg15
I3
sg16
I01
sa(dp235
g8
I00
sg9
F0.016632939497867483
sg10
F4.0600297985092766
sg11
I219
sg12
I0
sg13
g14
sg15
I3
sg16
I01
sa(dp236
g8
I00
sg9
F0.016732438921735593
sg10
F4.0767571056558154
sg11
I220
sg12
I0
sg13
g14
sg15
I3
sg16
I01
sa(dp237
g8
I00
sg9
F0.016639781865706027
sg10
F4.0933284638485929
sg11
I221
sg12
I0
sg13
g14
sg15
I3
sg16
I01
sa(dp238
g8
I00
sg9
F0.016612697494565509
sg10
F4.1099306126939155
sg11
I222
sg12
I0
sg13
g14
sg15
I3
sg16
I01
sa(dp239
g8
I00
sg9
F0.01663522028729858
sg10
F4.1266487966840941
sg11
I223
sg12
I0
sg13
g14
sg15
I3
sg16
I01
sa(dp240
g8
I00
sg9
F0.01673700050014304
sg10
F4.1433073950593098
sg11
I224
sg12
I0
sg13
g14
sg15
I3
sg16
I01
sa(dp241
g8
I00
sg9
F0.016657457980727486
sg10
F4.1599614318565727
sg11
I225
sg12
I0
sg13
g14
sg15
I3
sg16
I01
sa(dp242
g8
I00
sg9
F0.016654606994507049
sg10
F4.1766636503230075
sg11
I226
sg12
I0
sg13
g14
sg15
I3
sg16
I01
sa(dp243
g8
I00
sg9
F0.01660813591661281
sg10
F4.1932204684853787
sg11
I227
sg12
I0
sg13
g14
sg15
I3
sg16
I01
sa(dp244
g8
I00
sg9
F0.016666296038692963
sg10
F4.2098861943268275
sg11
I228
sg12
I0
sg13
g14
sg15
I3
sg16
I01
sa(dp245
g8
I00
sg9
F0.016650045416099601
sg10
F4.2265601880280883
sg11
I229
sg12
I0
sg13
g14
sg15
I3
sg16
I01
sa(dp246
g8
I00
sg9
F0.016734719710711943
sg10
F4.2433482211840783
sg11
I230
sg12
I0
sg13
g14
sg15
I3
sg16
I01
sa(dp247
g8
I00
sg9
F0.016665725841448875
sg10
F4.2599421021691342
sg11
I231
sg12
I0
sg13
g14
sg15
I3
sg16
I01
sa(dp248
g8
I00
sg9
F0.016646339133785659
sg10
F4.2765998452482563
sg11
I232
sg12
I0
sg13
g14
sg15
I3
sg16
I01
sa(dp249
g8
I00
sg9
F0.016665440742599458
sg10
F4.293252171453787
sg11
I233
sg12
I0
sg13
g14
sg15
I3
sg16
I01
sa(dp250
g8
I00
sg9
F0.016627522623821278
sg10
F4.3098791238803642
sg11
I234
sg12
I0
sg13
g14
sg15
I3
sg16
I01
sa(dp251
g8
I00
sg9
F0.016581906842475291
sg10
F4.3264807025284426
sg11
I235
sg12
I0
sg13
g14
sg15
I3
sg16
I01
sa(dp252
g8
I00
sg9
F0.016766080560955743
sg10
F4.3432319579605974
sg11
I236
sg12
I0
sg13
g14
sg15
I3
sg16
I01
sa(dp253
g8
I00
sg9
F0.016658883474065078
sg10
F4.3598882755468367
sg11
I237
sg12
I0
sg13
g14
sg15
I3
sg16
I01
sa(dp254
g8
I00
sg9
F0.016633794793960988
sg10
F4.3766056042409218
sg11
I238
sg12
I0
sg13
g14
sg15
I3
sg16
I01
sa(dp255
g8
I00
sg9
F0.016702218466434715
sg10
F4.393224003708383
sg11
I239
sg12
I0
sg13
g14
sg15
I3
sg16
I01
sa(dp256
g8
I00
sg9
F0.016668291728819895
sg10
F4.4099590085179443
sg11
I240
sg12
I0
sg13
g14
sg15
I3
sg16
I01
sa(dp257
g8
I00
sg9
F0.016649475218855514
sg10
F4.4265668593361625
sg11
I241
sg12
I0
sg13
g14
sg15
I3
sg16
I01
sa(dp258
g8
I00
sg9
F0.016661164263041428
sg10
F4.4431989435383912
sg11
I242
sg12
I0
sg13
g14
sg15
I3
sg16
I01
sa(dp259
g8
I00
sg9
F0.016643488147565222
sg10
F4.4598427167848058
sg11
I243
sg12
I0
sg13
g14
sg15
I3
sg16
I01
sa(dp260
g8
I00
sg9
F0.016669717222157487
sg10
F4.4765221273605675
sg11
I244
sg12
I0
sg13
g14
sg15
I3
sg16
I01
sa(dp261
g8
I00
sg9
F0.016598442563008575
sg10
F4.4931094510766343
sg11
I245
sg12
I0
sg13
g14
sg15
I3
sg16
I01
sa(dp262
g8
I00
sg9
F0.016680836069099314
sg10
F4.5097979848087562
sg11
I246
sg12
I0
sg13
g14
sg15
I3
sg16
I01
sa(dp263
g8
I00
sg9
F0.01670991612945727
sg10
F4.5265164538973295
sg11
I247
sg12
I0
sg13
g14
sg15
I3
sg16
I01
sa(dp264
g8
I00
sg9
F0.016590174702741933
sg10
F4.5430912332740263
sg11
I248
sg12
I0
sg13
g14
sg15
I3
sg16
I01
sa(dp265
g8
I00
sg9
F0.0166691470249134
sg10
F4.5597561038193817
sg11
I249
sg12
I0
sg13
g14
sg15
I3
sg16
I01
sa(dp266
g8
I00
sg9
F0.016660879164192011
sg10
F4.5765142016184654
sg11
I250
sg12
I0
sg13
g14
sg15
I3
sg16
I01
sa(dp267
g8
I00
sg9
F0.016655177191751136
sg10
F4.5930752962603947
sg11
I251
sg12
I0
sg13
g14
sg15
I3
sg16
I01
sa(dp268
g8
I00
sg9
F0.016688248633272451
sg10
F4.609774663740609
sg11
I252
sg12
I0
sg13
g14
sg15
I3
sg16
I01
sa(dp269
g8
I00
sg9
F0.016638071273519017
sg10
F4.6264155860003484
sg11
I253
sg12
I0
sg13
g14
sg15
I3
sg16
I01
sa(dp270
g8
I00
sg9
F0.016695946296749753
sg10
F4.6430955667733542
sg11
I254
sg12
I0
sg13
g14
sg15
I3
sg16
I01
sa(dp271
g8
I00
sg9
F0.016661449361436098
sg10
F4.6597567310363956
sg11
I255
sg12
I0
sg13
g14
sg15
I3
sg16
I01
sa(dp272
g8
I00
sg9
F0.016622675947473908
sg10
F4.6763959427044028
sg11
I256
sg12
I0
sg13
g14
sg15
I3
sg16
I01
sa(dp273
g8
I00
sg9
F0.01667399370126077
sg10
F4.6930539708823744
sg11
I257
sg12
I0
sg13
g14
sg15
I3
sg16
I01
sa(dp274
g8
I00
sg9
F0.016680265871855227
sg10
F4.709732811260892
sg11
I258
sg12
I0
sg13
g14
sg15
I3
sg16
I01
sa(dp275
g8
I00
sg9
F0.01660813591661281
sg10
F4.7263566276023994
sg11
I259
sg12
I0
sg13
g14
sg15
I3
sg16
I01
sa(dp276
g8
I00
sg9
F0.016650900712193106
sg10
F4.7430565652798578
sg11
I260
sg12
I0
sg13
g14
sg15
I3
sg16
I01
sa(dp277
g8
I00
sg9
F0.016700222776307783
sg10
F4.7596929259616445
sg11
I261
sg12
I0
sg13
g14
sg15
I3
sg16
I01
sa(dp278
g8
I00
sg9
F0.016645768936541572
sg10
F4.7763520945341043
sg11
I262
sg12
I0
sg13
g14
sg15
I3
sg16
I01
sa(dp279
g8
I00
sg9
F0.016678270181273547
sg10
F4.7930201011645295
sg11
I263
sg12
I0
sg13
g14
sg15
I3
sg16
I01
sa(dp280
g8
I00
sg9
F0.016704214156561648
sg10
F4.809743987127149
sg11
I264
sg12
I0
sg13
g14
sg15
I3
sg16
I01
sa(dp281
g8
I00
sg9
F0.016673708603320847
sg10
F4.826410283165842
sg11
I265
sg12
I0
sg13
g14
sg15
I3
sg16
I01
sa(dp282
g8
I00
sg9
F0.016659453670854418
sg10
F4.8430591881874534
sg11
I266
sg12
I0
sg13
g14
sg15
I3
sg16
I01
sa(dp283
g8
I00
sg9
F0.016670287419401575
sg10
F4.8597286203107615
sg11
I267
sg12
I0
sg13
g14
sg15
I3
sg16
I01
sa(dp284
g8
I00
sg9
F0.016651185811042524
sg10
F4.8763917802643846
sg11
I268
sg12
I0
sg13
g14
sg15
I3
sg16
I01
sa(dp285
g8
I00
sg9
F0.016685682745446684
sg10
F4.8930660590644948
sg11
I269
sg12
I0
sg13
g14
sg15
I3
sg16
I01
sa(dp286
g8
I00
sg9
F0.016654321895657631
sg10
F4.9097862387448004
sg11
I270
sg12
I0
sg13
g14
sg15
I3
sg16
I01
sa(dp287
g8
I00
sg9
F0.016656032487844641
sg10
F4.9263875322944841
sg11
I271
sg12
I0
sg13
g14
sg15
I3
sg16
I01
sa(dp288
g8
I00
sg9
F0.01649780274465229
sg10
F4.9429520481198779
sg11
I272
sg12
I0
sg13
g14
sg15
I3
sg16
I01
sa(dp289
g8
I00
sg9
F0.01966581878332363
sg10
F4.9626192923965391
sg11
I273
sg12
I0
sg13
g14
sg15
I3
sg16
I01
sa(dp290
g8
I00
sg9
F0.013848381124262232
sg10
F4.9764462911234659
sg11
I274
sg12
I0
sg13
g14
sg15
I3
sg16
I01
sa(dp291
g8
I00
sg9
F0.016633794793960988
sg10
F4.9928579940801683
sg11
I275
sg12
I0
sg13
g14
sg15
I3
sg16
I01
sa(dp292
g8
I00
sg9
F0.01632788395818352
sg10
F5.0091873035312346
sg11
I276
sg12
I0
sg13
g14
sg15
I3
sg16
I00
sa(dp293
g8
I00
sg9
F0.016790028846116911
sg10
F5.0260357775978264
sg11
I277
sg12
I0
sg13
g14
sg15
I3
sg16
I00
sa(dp294
g8
I00
sg9
F0.016667436433181138
sg10
F5.0426074208894534
sg11
I278
sg12
I0
sg13
g14
sg15
I3
sg16
I00
sa(dp295
g8
I00
sg9
F0.018328706182273891
sg10
F5.0609324207894133
sg11
I279
sg12
I0
sg13
g14
sg15
I3
sg16
I00
sa(dp296
g8
I00
sg9
F0.014880723284022679
sg10
F5.0758313903861563
sg11
I280
sg12
I0
sg13
g14
sg15
I3
sg16
I00
sa(dp297
g8
I00
sg9
F0.016777199407897569
sg10
F5.0926185682460527
sg11
I281
sg12
I0
sg13
g14
sg15
I3
sg16
I00
sa(dp298
g8
I00
sg9
F0.01670535455150457
sg10
F5.1093227824030691
sg11
I282
sg12
I0
sg13
g14
sg15
I3
sg16
I00
sa(dp299
g8
I00
sg9
F0.016639211668007192
sg10
F5.1259611387749828
sg11
I283
sg12
I0
sg13
g14
sg15
I3
sg16
I00
sa(dp300
g8
I00
sg9
F0.016797441410744796
sg10
F5.142954442948394
sg11
I284
sg12
I0
sg13
g14
sg15
I3
sg16
I00
sa(dp301
g8
I00
sg9
F0.016683116858075664
sg10
F5.1596421213848771
sg11
I285
sg12
I0
sg13
g14
sg15
I3
sg16
I00
sa(dp302
g8
I00
sg9
F0.016662304657529603
sg10
F5.1763041409435573
sg11
I286
sg12
I0
sg13
g14
sg15
I3
sg16
I00
sa(dp303
g8
I00
sg9
F0.016683401956470334
sg10
F5.1929906789850975
sg11
I287
sg12
I0
sg13
g14
sg15
I3
sg16
I00
sa(dp304
g8
I00
sg9
F0.016512057676663972
sg10
F5.2094599718666359
sg11
I288
sg12
I0
sg13
g14
sg15
I3
sg16
I00
sa(dp305
g8
I00
sg9
F0.016786892761047056
sg10
F5.2262819317597859
sg11
I289
sg12
I0
sg13
g14
sg15
I3
sg16
I00
sa(dp306
g8
I00
sg9
F0.016617829270671791
sg10
F5.2429439513189209
sg11
I290
sg12
I0
sg13
g14
sg15
I3
sg16
I00
sa(dp307
g8
I00
sg9
F0.016708775734969095
sg10
F5.2595957073267527
sg11
I291
sg12
I0
sg13
g14
sg15
I3
sg16
I00
sa(dp308
g8
I00
sg9
F0.016655462290145806
sg10
F5.2762443272499695
sg11
I292
sg12
I0
sg13
g14
sg15
I3
sg16
I00
sa(dp309
g8
I00
sg9
F0.016668861926063983
sg10
F5.292909767992569
sg11
I293
sg12
I0
sg13
g14
sg15
I3
sg16
I00
sa(dp310
g8
I00
sg9
F0.016660023868553253
sg10
F5.309574923636319
sg11
I294
sg12
I0
sg13
g14
sg15
I3
sg16
I00
sa(dp311
g8
I00
sg9
F0.016620680256892228
sg10
F5.3263800627100863
sg11
I295
sg12
I0
sg13
g14
sg15
I3
sg16
I00
sa(dp312
g8
I00
sg9
F0.016790599043360999
sg10
F5.3429810711613754
sg11
I296
sg12
I0
sg13
g14
sg15
I3
sg16
I00
sa(dp313
g8
I00
sg9
F0.016519755339686526
sg10
F5.3595096645585727
sg11
I297
sg12
I0
sg13
g14
sg15
I3
sg16
I00
sa(dp314
g8
I00
sg9
F0.016673708603320847
sg10
F5.3761773860901485
sg11
I298
sg12
I0
sg13
g14
sg15
I3
sg16
I00
sa(dp315
g8
I00
sg9
F0.01669879728297019
sg10
F5.3928801747538273
sg11
I299
sg12
I0
sg13
g14
sg15
I3
sg16
I00
sa(dp316
g8
I00
sg9
F0.016666296038238215
sg10
F5.4096151795638434
sg11
I300
sg12
I0
sg13
g14
sg15
I3
sg16
I00
sa(dp317
g8
I00
sg9
F0.016642917950321134
sg10
F5.4262025032799102
sg11
I301
sg12
I0
sg13
g14
sg15
I3
sg16
I00
sa(dp318
g8
I00
sg9
F0.016648619923216756
sg10
F5.4428365831727206
sg11
I302
sg12
I0
sg13
g14
sg15
I3
sg16
I00
sa(dp319
g8
I00
sg9
F0.016655462290145806
sg10
F5.4594960368440297
sg11
I303
sg12
I0
sg13
g14
sg15
I3
sg16
I00
sa(dp320
g8
I00
sg9
F0.016662304657529603
sg10
F5.4761534948247572
sg11
I304
sg12
I0
sg13
g14
sg15
I3
sg16
I00
sa(dp321
g8
I00
sg9
F0.016685682745446684
sg10
F5.4928400328662974
sg11
I305
sg12
I0
sg13
g14
sg15
I3
sg16
I00
sa(dp322
g8
I00
sg9
F0.016636075583392085
sg10
F5.5094909335780358
sg11
I306
sg12
I0
sg13
g14
sg15
I3
sg16
I00
sa(dp323
g8
I00
sg9
F0.016671998011133837
sg10
F5.5261461107697869
sg11
I307
sg12
I0
sg13
g14
sg15
I3
sg16
I00
sa(dp324
g8
I00
sg9
F0.01663550538569325
sg10
F5.5427807608598414
sg11
I308
sg12
I0
sg13
g14
sg15
I3
sg16
I00
sa(dp325
g8
I00
sg9
F0.016672283109983255
sg10
F5.5594772773538352
sg11
I309
sg12
I0
sg13
g14
sg15
I3
sg16
I00
sa(dp326
g8
I00
sg9
F0.016620680256437481
sg10
F5.576146994575538
sg11
I310
sg12
I0
sg13
g14
sg15
I3
sg16
I00
sa(dp327
g8
I00
sg9
F0.016717613792934571
sg10
F5.5927984654849752
sg11
I311
sg12
I0
sg13
g14
sg15
I3
sg16
I00
sa(dp328
g8
I00
sg9
F0.016649760317704931
sg10
F5.6094564936629467
sg11
I312
sg12
I0
sg13
g14
sg15
I3
sg16
I00
sa(dp329
g8
I00
sg9
F0.016515478860128496
sg10
F5.6259614238738322
sg11
I313
sg12
I0
sg13
g14
sg15
I3
sg16
I00
sa(dp330
g8
I00
sg9
F0.016832508542847791
sg10
F5.6428053363620165
sg11
I314
sg12
I0
sg13
g14
sg15
I3
sg16
I00
sa(dp331
g8
I00
sg9
F0.016661164263041428
sg10
F5.6594516754962569
sg11
I315
sg12
I0
sg13
g14
sg15
I3
sg16
I00
sa(dp332
g8
I00
sg9
F0.016589034308253758
sg10
F5.6760372886205914
sg11
I316
sg12
I0
sg13
g14
sg15
I3
sg16
I00
sa(dp333
g8
I00
sg9
F0.016666581137087633
sg10
F5.6927058654482607
sg11
I317
sg12
I0
sg13
g14
sg15
I3
sg16
I00
sa(dp334
g8
I00
sg9
F0.016658598375215661
sg10
F5.7093724465853484
sg11
I318
sg12
I0
sg13
g14
sg15
I3
sg16
I00
sa(dp335
g8
I00
sg9
F0.016671998011133837
sg10
F5.7260384575251919
sg11
I319
sg12
I0
sg13
g14
sg15
I3
sg16
I00
sa(dp336
g8
I00
sg9
F0.016651470909437194
sg10
F5.7427563564165212
sg11
I320
sg12
I0
sg13
g14
sg15
I3
sg16
I00
sa(dp337
g8
I00
sg9
F0.016658598375215661
sg10
F5.7593516628949146
sg11
I321
sg12
I0
sg13
g14
sg15
I3
sg16
I00
sa(dp338
g8
I00
sg9
F0.016682831759226247
sg10
F5.7760293628784893
sg11
I322
sg12
I0
sg13
g14
sg15
I3
sg16
I00
sa(dp339
g8
I00
sg9
F0.016646054035390989
sg10
F5.792677412604462
sg11
I323
sg12
I0
sg13
g14
sg15
I3
sg16
I00
sa(dp340
g8
I00
sg9
F0.016661164263041428
sg10
F5.8093357258808282
sg11
I324
sg12
I0
sg13
g14
sg15
I3
sg16
I00
sa(dp341
g8
I00
sg9
F0.0166691470249134
sg10
F5.8260048729057416
sg11
I325
sg12
I0
sg13
g14
sg15
I3
sg16
I00
sa(dp342
g8
I00
sg9
F0.016658598375215661
sg10
F5.8426640414782014
sg11
I326
sg12
I0
sg13
g14
sg15
I3
sg16
I00
sa(dp343
g8
I00
sg9
F0.01663978186525128
sg10
F5.8593132315986622
sg11
I327
sg12
I0
sg13
g14
sg15
I3
sg16
I00
sa(dp344
g8
I00
sg9
F0.016728162442632311
sg10
F5.8760334112794226
sg11
I328
sg12
I0
sg13
g14
sg15
I3
sg16
I00
sa(dp345
g8
I00
sg9
F0.016695661197900336
sg10
F5.8927473187900432
sg11
I329
sg12
I0
sg13
g14
sg15
I3
sg16
I00
sa(dp346
g8
I00
sg9
F0.016547980104405724
sg10
F5.9093454762542024
sg11
I330
sg12
I0
sg13
g14
sg15
I3
sg16
I00
sa(dp347
g8
I00
sg9
F0.016763514673129976
sg10
F5.9260471245238477
sg11
I331
sg12
I0
sg13
g14
sg15
I3
sg16
I00
sa(dp348
g8
I00
sg9
F0.016483547813095356
sg10
F5.9425911132475449
sg11
I332
sg12
I0
sg13
g14
sg15
I3
sg16
I00
sa(dp349
g8
I00
sg9
F0.016823100288092974
sg10
F5.9593512067367556
sg11
I333
sg12
I0
sg13
g14
sg15
I3
sg16
I00
sa(dp350
g8
I00
sg9
F0.016662304657529603
sg10
F5.9760126560986464
sg11
I334
sg12
I0
sg13
g14
sg15
I3
sg16
I00
sa(dp351
g8
I00
sg9
F0.016660879164192011
sg10
F5.9926849392081749
sg11
I335
sg12
I0
sg13
g14
sg15
I3
sg16
I00
sa(dp352
g8
I00
sg9
F0.016598727661857993
sg10
F6.0092671311494996
sg11
I336
sg12
I0
sg13
g14
sg15
I8
sg16
I01
sa(dp353
g8
I00
sg9
F0.016664015249261865
sg10
F6.0259317165960056
sg11
I337
sg12
I0
sg13
g14
sg15
I8
sg16
I01
sa(dp354
g8
I00
sg9
F0.016658598375670408
sg10
F6.0425988679303373
sg11
I338
sg12
I0
sg13
g14
sg15
I8
sg16
I01
sa(dp355
g8
I00
sg9
F0.016660879164192011
sg10
F6.0593395747127943
sg11
I339
sg12
I0
sg13
g14
sg15
I8
sg16
I01
sa(dp356
g8
I00
sg9
F0.016661734460285516
sg10
F6.0759964624962777
sg11
I340
sg12
I0
sg13
g14
sg15
I8
sg16
I01
sa(dp357
g8
I00
sg9
F0.016652041106681281
sg10
F6.0925783693382982
sg11
I341
sg12
I0
sg13
g14
sg15
I8
sg16
I01
sa(dp358
g8
I00
sg9
F0.016668861926063983
sg10
F6.1092429547852589
sg11
I342
sg12
I0
sg13
g14
sg15
I8
sg16
I01
sa(dp359
g8
I00
sg9
F0.016656602685088728
sg10
F6.1258892939190446
sg11
I343
sg12
I0
sg13
g14
sg15
I8
sg16
I01
sa(dp360
g8
I00
sg9
F0.016657172881878068
sg10
F6.1425641429163989
sg11
I344
sg12
I0
sg13
g14
sg15
I8
sg16
I01
sa(dp361
g8
I00
sg9
F0.016662019559134933
sg10
F6.1592127628396156
sg11
I345
sg12
I0
sg13
g14
sg15
I8
sg16
I01
sa(dp362
g8
I00
sg9
F0.01657420917899799
sg10
F6.175754755872731
sg11
I346
sg12
I0
sg13
g14
sg15
I8
sg16
I01
sa(dp363
g8
I00
sg9
F0.016786892761047056
sg10
F6.1925958173746949
sg11
I347
sg12
I0
sg13
g14
sg15
I8
sg16
I01
sa(dp364
g8
I00
sg9
F0.016683116858075664
sg10
F6.2092566965393416
sg11
I348
sg12
I0
sg13
g14
sg15
I8
sg16
I01
sa(dp365
g8
I00
sg9
F0.01666287485477369
sg10
F6.2259272690571379
sg11
I349
sg12
I0
sg13
g14
sg15
I8
sg16
I01
sa(dp366
g8
I00
sg9
F0.016658598375215661
sg10
F6.2426608483738164
sg11
I350
sg12
I0
sg13
g14
sg15
I8
sg16
I01
sa(dp367
g8
I00
sg9
F0.016644343443658727
sg10
F6.2592213728185015
sg11
I351
sg12
I0
sg13
g14
sg15
I8
sg16
I01
sa(dp368
g8
I00
sg9
F0.016685682745446684
sg10
F6.2759033492816343
sg11
I352
sg12
I0
sg13
g14
sg15
I8
sg16
I01
sa(dp369
g8
I00
sg9
F0.016654892093356466
sg10
F6.2925639433474316
sg11
I353
sg12
I0
sg13
g14
sg15
I8
sg16
I01
sa(dp370
g8
I00
sg9
F0.016652041106681281
sg10
F6.3092188354403334
sg11
I354
sg12
I0
sg13
g14
sg15
I8
sg16
I01
sa(dp371
g8
I00
sg9
F0.016670572517796245
sg10
F6.3258842761829328
sg11
I355
sg12
I0
sg13
g14
sg15
I8
sg16
I01
sa(dp372
g8
I00
sg9
F0.016661449361890845
sg10
F6.3425557039968226
sg11
I356
sg12
I0
sg13
g14
sg15
I8
sg16
I01
sa(dp373
g8
I00
sg9
F0.016632654399018065
sg10
F6.3591820862261557
sg11
I357
sg12
I0
sg13
g14
sg15
I8
sg16
I01
sa(dp374
g8
I00
sg9
F0.016699082381819608
sg10
F6.3758763219311732
sg11
I358
sg12
I0
sg13
g14
sg15
I8
sg16
I01
sa(dp375
g8
I00
sg9
F0.016656032487389894
sg10
F6.3925363457997264
sg11
I359
sg12
I0
sg13
g14
sg15
I8
sg16
I01
sa(dp376
g8
I00
sg9
F0.016627522624276025
sg10
F6.4092328622932655
sg11
I360
sg12
I0
sg13
g14
sg15
I8
sg16
I01
sa(dp377
g8
I00
sg9
F0.016680265871400479
sg10
F6.42585525314189
sg11
I361
sg12
I0
sg13
g14
sg15
I8
sg16
I01
sa(dp378
g8
I00
sg9
F0.016640352062495367
sg10
F6.4424816353712231
sg11
I362
sg12
I0
sg13
g14
sg15
I8
sg16
I01
sa(dp379
g8
I00
sg9
F0.016624101440356753
sg10
F6.4591154301651841
sg11
I363
sg12
I0
sg13
g14
sg15
I8
sg16
I01
sa(dp380
g8
I00
sg9
F0.016661449361890845
sg10
F6.4757691818635976
sg11
I364
sg12
I0
sg13
g14
sg15
I8
sg16
I01
sa(dp381
g8
I00
sg9
F0.016734434612317273
sg10
F6.492510173744904
sg11
I365
sg12
I0
sg13
g14
sg15
I8
sg16
I01
sa(dp382
g8
I00
sg9
F0.016563945628149668
sg10
F6.5091200202532491
sg11
I366
sg12
I0
sg13
g14
sg15
I8
sg16
I01
sa(dp383
g8
I00
sg9
F0.016725026357562456
sg10
F6.5257905927715001
sg11
I367
sg12
I0
sg13
g14
sg15
I8
sg16
I01
sa(dp384
g8
I00
sg9
F0.016688248633272451
sg10
F6.5424828327854812
sg11
I368
sg12
I0
sg13
g14
sg15
I8
sg16
I01
sa(dp385
g8
I00
sg9
F0.01663522028729858
sg10
F6.55911178090264
sg11
I369
sg12
I0
sg13
g14
sg15
I8
sg16
I01
sa(dp386
g8
I00
sg9
F0.016677699983574712
sg10
F6.5758618959403066
sg11
I370
sg12
I0
sg13
g14
sg15
I8
sg16
I01
sa(dp387
g8
I00
sg9
F0.023264333761744638
sg10
F6.5992046318265238
sg11
I371
sg12
I0
sg13
g14
sg15
I8
sg16
I01
sa(dp388
g8
I00
sg9
F0.0099114540657865291
sg10
F6.6089333376667128
sg11
I372
sg12
I0
sg13
g14
sg15
I8
sg16
I01
sa(dp389
g8
I00
sg9
F0.016765225264862238
sg10
F6.62574161282555
sg11
I373
sg12
I0
sg13
g14
sg15
I8
sg16
I01
sa(dp390
g8
I00
sg9
F0.016648905021611426
sg10
F6.6423925135377431
sg11
I374
sg12
I0
sg13
g14
sg15
I8
sg16
I01
sa(dp391
g8
I00
sg9
F0.01666715133433172
sg10
F6.6590474056310995
sg11
I375
sg12
I0
sg13
g14
sg15
I8
sg16
I01
sa(dp392
g8
I00
sg9
F0.016660308966947923
sg10
F6.6757094251897797
sg11
I376
sg12
I0
sg13
g14
sg15
I8
sg16
I01
sa(dp393
g8
I00
sg9
F0.016660308967402671
sg10
F6.6923705894528212
sg11
I377
sg12
I0
sg13
g14
sg15
I8
sg16
I01
sa(dp394
g8
I00
sg9
F0.016654606994052301
sg10
F6.7090192093760379
sg11
I378
sg12
I0
sg13
g14
sg15
I8
sg16
I01
sa(dp395
g8
I00
sg9
F0.016713622412225959
sg10
F6.7257636224403541
sg11
I379
sg12
I0
sg13
g14
sg15
I8
sg16
I01
sa(dp396
g8
I00
sg9
F0.01652944869329076
sg10
F6.7423335551402488
sg11
I380
sg12
I0
sg13
g14
sg15
I8
sg16
I01
sa(dp397
g8
I00
sg9
F0.016812266540000564
sg10
F6.7590796787962972
sg11
I381
sg12
I0
sg13
g14
sg15
I8
sg16
I01
sa(dp398
g8
I00
sg9
F0.016642632851471717
sg10
F6.7757254477332935
sg11
I382
sg12
I0
sg13
g14
sg15
I8
sg16
I01
sa(dp399
g8
I00
sg9
F0.016660879164646758
sg10
F6.792382905714021
sg11
I383
sg12
I0
sg13
g14
sg15
I8
sg16
I01
sa(dp400
g8
I00
sg9
F0.016643773245959892
sg10
F6.8090261087627368
sg11
I384
sg12
I0
sg13
g14
sg15
I8
sg16
I01
sa(dp401
g8
I00
sg9
F0.016542278131964849
sg10
F6.8255179244360988
sg11
I385
sg12
I0
sg13
g14
sg15
I8
sg16
I01
sa(dp402
g8
I00
sg9
F0.016798011607988883
sg10
F6.8423686792921217
sg11
I386
sg12
I0
sg13
g14
sg15
I8
sg16
I01
sa(dp403
g8
I00
sg9
F0.016674278800564934
sg10
F6.8590409624016502
sg11
I387
sg12
I0
sg13
g14
sg15
I8
sg16
I01
sa(dp404
g8
I00
sg9
F0.016652896402320039
sg10
F6.8757001309741099
sg11
I388
sg12
I0
sg13
g14
sg15
I8
sg16
I01
sa(dp405
g8
I00
sg9
F0.01666686623593705
sg10
F6.8923612952371514
sg11
I389
sg12
I0
sg13
g14
sg15
I8
sg16
I01
sa(dp406
g8
I00
sg9
F0.01664006696364595
sg10
F6.9090660795914118
sg11
I390
sg12
I0
sg13
g14
sg15
I8
sg16
I01
sa(dp407
g8
I00
sg9
F0.016678555280122964
sg10
F6.9256847641577224
sg11
I391
sg12
I0
sg13
g14
sg15
I8
sg16
I01
sa(dp408
g8
I00
sg9
F0.016533154975604702
sg10
F6.9422675262958364
sg11
I392
sg12
I0
sg13
g14
sg15
I8
sg16
I01
sa(dp409
g8
I00
sg9
F0.016715333003503474
sg10
F6.958929830953366
sg11
I393
sg12
I0
sg13
g14
sg15
I8
sg16
I01
sa(dp410
g8
I00
sg9
F0.01666943212330807
sg10
F6.975608386233489
sg11
I394
sg12
I0
sg13
g14
sg15
I8
sg16
I01
sa(dp411
g8
I00
sg9
F0.016670002321006905
sg10
F6.9922686952004369
sg11
I395
sg12
I0
sg13
g14
sg15
I8
sg16
I01
sa(dp412
g8
I00
sg9
F0.016713052214527124
sg10
F7.0090199506321369
sg11
I396
sg12
I0
sg13
g14
sg15
I8
sg16
I00
sa(dp413
g8
I00
sg9
F0.016598727661857993
sg10
F7.0255838962607413
sg11
I397
sg12
I0
sg13
g14
sg15
I8
sg16
I00
sa(dp414
g8
I00
sg9
F0.016736715401293623
sg10
F7.0423200414647908
sg11
I398
sg12
I0
sg13
g14
sg15
I8
sg16
I00
sa(dp415
g8
I00
sg9
F0.016638926569612522
sg10
F7.0589621041190185
sg11
I399
sg12
I0
sg13
g14
sg15
I8
sg16
I00
sa(dp416
g8
I00
sg9
F0.016629803413252375
sg10
F7.0756617566980822
sg11
I400
sg12
I0
sg13
g14
sg15
I8
sg16
I00
sa(dp417
g8
I00
sg9
F0.016557388359615288
sg10
F7.0921498660891302
sg11
I401
sg12
I0
sg13
g14
sg15
I8
sg16
I00
sa(dp418
g8
I00
sg9
F0.016784041774826619
sg10
F7.1089287760887601
sg11
I402
sg12
I0
sg13
g14
sg15
I8
sg16
I00
sa(dp419
g8
I00
sg9
F0.016686823139934859
sg10
F7.1256193055110089
sg11
I403
sg12
I0
sg13
g14
sg15
I8
sg16
I00
sa(dp420
g8
I00
sg9
F0.016651185811042524
sg10
F7.1422659297436439
sg11
I404
sg12
I0
sg13
g14
sg15
I8
sg16
I00
sa(dp421
g8
I00
sg9
F0.016621250454136316
sg10
F7.1588934523674652
sg11
I405
sg12
I0
sg13
g14
sg15
I8
sg16
I00
sa(dp422
g8
I00
sg9
F0.01669936747975953
sg10
F7.1755916794531913
sg11
I406
sg12
I0
sg13
g14
sg15
I8
sg16
I00
sa(dp423
g8
I00
sg9
F0.016659738770158583
sg10
F7.1922479970394306
sg11
I407
sg12
I0
sg13
g14
sg15
I8
sg16
I00
sa(dp424
g8
I00
sg9
F0.016615548481240694
sg10
F7.2088529968714283
sg11
I408
sg12
I0
sg13
g14
sg15
I8
sg16
I00
sa(dp425
g8
I00
sg9
F0.016661449361436098
sg10
F7.2255272756715385
sg11
I409
sg12
I0
sg13
g14
sg15
I8
sg16
I00
sa(dp426
g8
I00
sg9
F0.016644913640902814
sg10
F7.2422309196313108
sg11
I410
sg12
I0
sg13
g14
sg15
I8
sg16
I00
sa(dp427
g8
I00
sg9
F0.016690529422248801
sg10
F7.2588541657755741
sg11
I411
sg12
I0
sg13
g14
sg15
I8
sg16
I00
sa(dp428
g8
I00
sg9
F0.016640352062950114
sg10
F7.2755033558960349
sg11
I412
sg12
I0
sg13
g14
sg15
I8
sg16
I00
sa(dp429
g8
I00
sg9
F0.016660594065797341
sg10
F7.2921713625264601
sg11
I413
sg12
I0
sg13
g14
sg15
I8
sg16
I00
sa(dp430
g8
I00
sg9
F0.016698797282515443
sg10
F7.3088527687923488
sg11
I414
sg12
I0
sg13
g14
sg15
I8
sg16
I00
sa(dp431
g8
I00
sg9
F0.016678270181273547
sg10
F7.3255395919327384
sg11
I415
sg12
I0
sg13
g14
sg15
I8
sg16
I00
sa(dp432
g8
I00
sg9
F0.016616973974578286
sg10
F7.3421505788355717
sg11
I416
sg12
I0
sg13
g14
sg15
I8
sg16
I00
sa(dp433
g8
I00
sg9
F0.016706209847598075
sg10
F7.3588687628257503
sg11
I417
sg12
I0
sg13
g14
sg15
I8
sg16
I00
sa(dp434
g8
I00
sg9
F0.016658028177971573
sg10
F7.3755208039324316
sg11
I418
sg12
I0
sg13
g14
sg15
I8
sg16
I00
sa(dp435
g8
I00
sg9
F0.016625526933239598
sg10
F7.3921486116551023
sg11
I419
sg12
I0
sg13
g14
sg15
I8
sg16
I00
sa(dp436
g8
I00
sg9
F0.016705924748748657
sg10
F7.4089121263282323
sg11
I420
sg12
I0
sg13
g14
sg15
I8
sg16
I00
sa(dp437
g8
I00
sg9
F0.016656887783483398
sg10
F7.4255194069492063
sg11
I421
sg12
I0
sg13
g14
sg15
I8
sg16
I00
sa(dp438
g8
I00
sg9
F0.016644343443658727
sg10
F7.4421480699675158
sg11
I422
sg12
I0
sg13
g14
sg15
I8
sg16
I00
sa(dp439
g8
I00
sg9
F0.016687678436028364
sg10
F7.4588366036996376
sg11
I423
sg12
I0
sg13
g14
sg15
I8
sg16
I00
sa(dp440
g8
I00
sg9
F0.016647764627123252
sg10
F7.4754997636532607
sg11
I424
sg12
I0
sg13
g14
sg15
I8
sg16
I00
sa(dp441
g8
I00
sg9
F0.016654892092901719
sg10
F7.492139545518512
sg11
I425
sg12
I0
sg13
g14
sg15
I8
sg16
I00
sa(dp442
g8
I00
sg9
F0.016725311456411873
sg10
F7.5090079764895563
sg11
I426
sg12
I0
sg13
g14
sg15
I8
sg16
I00
sa(dp443
g8
I00
sg9
F0.016603574338205362
sg10
F7.5254766991733959
sg11
I427
sg12
I0
sg13
g14
sg15
I8
sg16
I00
sa(dp444
g8
I00
sg9
F0.016660308967402671
sg10
F7.5421401442258684
sg11
I428
sg12
I0
sg13
g14
sg15
I8
sg16
I00
sa(dp445
g8
I00
sg9
F0.01663750107627493
sg10
F7.5587947512199207
sg11
I429
sg12
I0
sg13
g14
sg15
I8
sg16
I00
sa(dp446
g8
I00
sg9
F0.016611557100077334
sg10
F7.5754690300204857
sg11
I430
sg12
I0
sg13
g14
sg15
I8
sg16
I00
sa(dp447
g8
I00
sg9
F0.016735575007260195
sg10
F7.5921176499432477
sg11
I431
sg12
I0
sg13
g14
sg15
I8
sg16
I00
sa(dp448
g8
I00
sg9
F0.01669936747975953
sg10
F7.6088147366344856
sg11
I432
sg12
I0
sg13
g14
sg15
I8
sg16
I00
sa(dp449
g8
I00
sg9
F0.016628092821520113
sg10
F7.6254530930063993
sg11
I433
sg12
I0
sg13
g14
sg15
I8
sg16
I00
sa(dp450
g8
I00
sg9
F0.016666581137087633
sg10
F7.6421071298036622
sg11
I434
sg12
I0
sg13
g14
sg15
I8
sg16
I00
sa(dp451
g8
I00
sg9
F0.016643773246414639
sg10
F7.6587651579816338
sg11
I435
sg12
I0
sg13
g14
sg15
I8
sg16
I00
sa(dp452
g8
I00
sg9
F0.016670572517796245
sg10
F7.6754214755678731
sg11
I436
sg12
I0
sg13
g14
sg15
I8
sg16
I00
sa(dp453
g8
I00
sg9
F0.016663159953623108
sg10
F7.6920832100281586
sg11
I437
sg12
I0
sg13
g14
sg15
I8
sg16
I00
sa(dp454
g8
I00
sg9
F0.016595876675182808
sg10
F7.7086882098601563
sg11
I438
sg12
I0
sg13
g14
sg15
I8
sg16
I00
sa(dp455
g8
I00
sg9
F0.016722745568131359
sg10
F7.7254018322719276
sg11
I439
sg12
I0
sg13
g14
sg15
I8
sg16
I00
sa(dp456
g8
I00
sg9
F0.016674563898959605
sg10
F7.7421431092516286
sg11
I440
sg12
I0
sg13
g14
sg15
I8
sg16
I00
sa(dp457
g8
I00
sg9
F0.016650330514949019
sg10
F7.7587466835902887
sg11
I441
sg12
I0
sg13
g14
sg15
I8
sg16
I00
sa(dp458
g8
I00
sg9
F0.016660023868553253
sg10
F7.7753975843020271
sg11
I442
sg12
I0
sg13
g14
sg15
I8
sg16
I00
sa(dp459
g8
I00
sg9
F0.016658598375215661
sg10
F7.7920527614937782
sg11
I443
sg12
I0
sg13
g14
sg15
I8
sg16
I00
sa(dp460
g8
I00
sg9
F0.01666287485477369
sg10
F7.8087261849982497
sg11
I444
sg12
I0
sg13
g14
sg15
I8
sg16
I00
sa(dp461
g8
I00
sg9
F0.01666287485477369
sg10
F7.8253779410060815
sg11
I445
sg12
I0
sg13
g14
sg15
I8
sg16
I00
sa(dp462
g8
I00
sg9
F0.016638926569612522
sg10
F7.8420085997154274
sg11
I446
sg12
I0
sg13
g14
sg15
I8
sg16
I00
sa(dp463
g8
I00
sg9
F0.016692525112830481
sg10
F7.8587170903515471
sg11
I447
sg12
I0
sg13
g14
sg15
I8
sg16
I00
sa(dp464
g8
I00
sg9
F0.016656887783483398
sg10
F7.8753659953736133
sg11
I448
sg12
I0
sg13
g14
sg15
I8
sg16
I00
sa(dp465
g8
I00
sg9
F0.016632654399472813
sg10
F7.89199009681397
sg11
I449
sg12
I0
sg13
g14
sg15
I8
sg16
I00
sa(dp466
g8
I00
sg9
F0.016676559589086537
sg10
F7.9087558922760763
sg11
I450
sg12
I0
sg13
g14
sg15
I8
sg16
I00
sa(dp467
g8
I00
sg9
F0.016654892093356466
sg10
F7.925324114383784
sg11
I451
sg12
I0
sg13
g14
sg15
I8
sg16
I00
sa(dp468
g8
I00
sg9
F0.016633794793960988
sg10
F7.9420226265679048
sg11
I452
sg12
I0
sg13
g14
sg15
I8
sg16
I00
sa(dp469
g8
I00
sg9
F0.016643203048715804
sg10
F7.9586165075529607
sg11
I453
sg12
I0
sg13
g14
sg15
I8
sg16
I00
sa(dp470
g8
I00
sg9
F0.016644343443658727
sg10
F7.9752448854728755
sg11
I454
sg12
I0
sg13
g14
sg15
I8
sg16
I00
sa(dp471
g8
I00
sg9
F0.016695661197900336
sg10
F7.9919394062762876
sg11
I455
sg12
I0
sg13
g14
sg15
I8
sg16
I00
sa(dp472
g8
I00
sg9
F0.016655747388995223
sg10
F8.0086099787945386
sg11
I456
sg12
I0
sg13
g14
sg15
I6
sg16
I01
sa(dp473
g8
I00
sg9
F0.016618684566310549
sg10
F8.0252138382315934
sg11
I457
sg12
I0
sg13
g14
sg15
I6
sg16
I01
sa(dp474
g8
I00
sg9
F0.016685397647052014
sg10
F8.041911210021226
sg11
I458
sg12
I0
sg13
g14
sg15
I6
sg16
I01
sa(dp475
g8
I00
sg9
F0.016656317585784564
sg10
F8.058577506059919
sg11
I459
sg12
I0
sg13
g14
sg15
I6
sg16
I01
sa(dp476
g8
I00
sg9
F0.0167005078751572
sg10
F8.0753421611275371
sg11
I460
sg12
I0
sg13
g14
sg15
I6
sg16
I01
sa(dp477
g8
I00
sg9
F0.016653466599564126
sg10
F8.0919160852081404
sg11
I461
sg12
I0
sg13
g14
sg15
I6
sg16
I01
sa(dp478
g8
I00
sg9
F0.016717613792934571
sg10
F8.108691574023851
sg11
I462
sg12
I0
sg13
g14
sg15
I6
sg16
I01
sa(dp479
g8
I00
sg9
F0.016711056524400192
sg10
F8.1253416194399506
sg11
I463
sg12
I0
sg13
g14
sg15
I6
sg16
I01
sa(dp480
g8
I00
sg9
F0.016745553458804352
sg10
F8.1420957258583257
sg11
I464
sg12
I0
sg13
g14
sg15
I6
sg16
I01
sa(dp481
g8
I00
sg9
F0.016506070605373679
sg10
F8.1586120600145478
sg11
I465
sg12
I0
sg13
g14
sg15
I6
sg16
I01
sa(dp482
g8
I00
sg9
F0.016620110059648141
sg10
F8.1752142088598703
sg11
I466
sg12
I0
sg13
g14
sg15
I6
sg16
I01
sa(dp483
g8
I00
sg9
F0.016721605173643184
sg10
F8.1919375246252457
sg11
I467
sg12
I0
sg13
g14
sg15
I6
sg16
I01
sa(dp484
g8
I00
sg9
F0.016635790484542667
sg10
F8.2085884253374388
sg11
I468
sg12
I0
sg13
g14
sg15
I6
sg16
I01
sa(dp485
g8
I00
sg9
F0.016623246144263248
sg10
F8.2251937102678312
sg11
I469
sg12
I0
sg13
g14
sg15
I6
sg16
I01
sa(dp486
g8
I00
sg9
F0.016694235704562743
sg10
F8.2419592206315428
sg11
I470
sg12
I0
sg13
g14
sg15
I6
sg16
I01
sa(dp487
g8
I00
sg9
F0.016669432123762817
sg10
F8.2585770499017599
sg11
I471
sg12
I0
sg13
g14
sg15
I6
sg16
I01
sa(dp488
g8
I00
sg9
F0.016630943807285803
sg10
F8.2751883219038973
sg11
I472
sg12
I0
sg13
g14
sg15
I6
sg16
I01
sa(dp489
g8
I00
sg9
F0.016679695674611139
sg10
F8.2918688728736925
sg11
I473
sg12
I0
sg13
g14
sg15
I6
sg16
I01
sa(dp490
g8
I00
sg9
F0.016668006629970478
sg10
F8.3085542705207445
sg11
I474
sg12
I0
sg13
g14
sg15
I6
sg16
I01
sa(dp491
g8
I00
sg9
F0.01660557002924179
sg10
F8.3251421644345101
sg11
I475
sg12
I0
sg13
g14
sg15
I6
sg16
I01
sa(dp492
g8
I00
sg9
F0.016725881653201213
sg10
F8.3418680460877113
sg11
I476
sg12
I0
sg13
g14
sg15
I6
sg16
I01
sa(dp493
g8
I00
sg9
F0.016628092821520113
sg10
F8.3585012706844282
sg11
I477
sg12
I0
sg13
g14
sg15
I6
sg16
I01
sa(dp494
g8
I00
sg9
F0.016666010939843545
sg10
F8.3751687071176093
sg11
I478
sg12
I0
sg13
g14
sg15
I6
sg16
I01
sa(dp495
g8
I00
sg9
F0.016701933367585298
sg10
F8.3918732063730204
sg11
I479
sg12
I0
sg13
g14
sg15
I6
sg16
I01
sa(dp496
g8
I00
sg9
F0.016535150666186382
sg10
F8.408494171728762
sg11
I480
sg12
I0
sg13
g14
sg15
I6
sg16
I01
sa(dp497
g8
I00
sg9
F0.016762659377036471
sg10
F8.4251789991781152
sg11
I481
sg12
I0
sg13
g14
sg15
I6
sg16
I01
sa(dp498
g8
I00
sg9
F0.016613837889508432
sg10
F8.4417814331222871
sg11
I482
sg12
I0
sg13
g14
sg15
I6
sg16
I01
sa(dp499
g8
I00
sg9
F0.016644343443658727
sg10
F8.4584169385079804
sg11
I483
sg12
I0
sg13
g14
sg15
I6
sg16
I01
sa(dp500
g8
I00
sg9
F0.016716188299596979
sg10
F8.4751305609202063
sg11
I484
sg12
I0
sg13
g14
sg15
I6
sg16
I01
sa(dp501
g8
I00
sg9
F0.016612697495020257
sg10
F8.4918025589313402
sg11
I485
sg12
I0
sg13
g14
sg15
I6
sg16
I01
sa(dp502
g8
I00
sg9
F0.016678840378517634
sg10
F8.5084215285960454
sg11
I486
sg12
I0
sg13
g14
sg15
I6
sg16
I01
sa(dp503
g8
I00
sg9
F0.016704784354260482
sg10
F8.5251314447259574
sg11
I487
sg12
I0
sg13
g14
sg15
I6
sg16
I01
sa(dp504
g8
I00
sg9
F0.016651185810587776
sg10
F8.5418088596111374
sg11
I488
sg12
I0
sg13
g14
sg15
I6
sg16
I01
sa(dp505
g8
I00
sg9
F0.016662304657529603
sg10
F8.5584429395039479
sg11
I489
sg12
I0
sg13
g14
sg15
I6
sg16
I01
sa(dp506
g8
I00
sg9
F0.016672853307227342
sg10
F8.5751842164831942
sg11
I490
sg12
I0
sg13
g14
sg15
I6
sg16
I01
sa(dp507
g8
I00
sg9
F0.016646909331029747
sg10
F8.5917672637201576
sg11
I491
sg12
I0
sg13
g14
sg15
I6
sg16
I01
sa(dp508
g8
I00
sg9
F0.016666010939843545
sg10
F8.608436410745071
sg11
I492
sg12
I0
sg13
g14
sg15
I6
sg16
I01
sa(dp509
g8
I00
sg9
F0.01660157864807843
sg10
F8.6250314321246151
sg11
I493
sg12
I0
sg13
g14
sg15
I6
sg16
I01
sa(dp510
g8
I00
sg9
F0.016721320075248514
sg10
F8.6417895299236989
sg11
I494
sg12
I0
sg13
g14
sg15
I6
sg16
I01
sa(dp511
g8
I00
sg9
F0.016662304657529603
sg10
F8.6584153419557879
sg11
I495
sg12
I0
sg13
g14
sg15
I6
sg16
I01
sa(dp512
g8
I00
sg9
F0.016727022047689388
sg10
F8.6751551934421514
sg11
I496
sg12
I0
sg13
g14
sg15
I6
sg16
I01
sa(dp513
g8
I00
sg9
F0.016490390180479153
sg10
F8.6916675362176647
sg11
I497
sg12
I0
sg13
g14
sg15
I6
sg16
I01
sa(dp514
g8
I00
sg9
F0.016718469088573329
sg10
F8.7083523636670179
sg11
I498
sg12
I0
sg13
g14
sg15
I6
sg16
I01
sa(dp515
g8
I00
sg9
F0.016618399467915879
sg10
F8.7249790309952004
sg11
I499
sg12
I0
sg13
g14
sg15
I6
sg16
I01
sa(dp516
g8
I00
sg9
F0.016692810211225151
sg10
F8.7417493880357142
sg11
I500
sg12
I0
sg13
g14
sg15
I6
sg16
I01
sa(dp517
g8
I00
sg9
F0.016678270181273547
sg10
F8.7583446945141077
sg11
I501
sg12
I0
sg13
g14
sg15
I6
sg16
I01
sa(dp518
g8
I00
sg9
F0.016689103929365956
sg10
F8.7750312325556479
sg11
I502
sg12
I0
sg13
g14
sg15
I6
sg16
I01
sa(dp519
g8
I00
sg9
F0.016676274490691867
sg10
F8.7917166302026999
sg11
I503
sg12
I0
sg13
g14
sg15
I6
sg16
I01
sa(dp520
g8
I00
sg9
F0.016625241834844928
sg10
F8.8083358849662545
sg11
I504
sg12
I0
sg13
g14
sg15
I6
sg16
I01
sa(dp521
g8
I00
sg9
F0.016676844687935954
sg10
F8.8250075978785389
sg11
I505
sg12
I0
sg13
g14
sg15
I6
sg16
I01
sa(dp522
g8
I00
sg9
F0.016671712912739167
sg10
F8.8416818766786491
sg11
I506
sg12
I0
sg13
g14
sg15
I6
sg16
I01
sa(dp523
g8
I00
sg9
F0.016648619922762009
sg10
F8.8583416154488077
sg11
I507
sg12
I0
sg13
g14
sg15
I6
sg16
I01
sa(dp524
g8
I00
sg9
F0.016599868056346168
sg10
F8.8749289391648745
sg11
I508
sg12
I0
sg13
g14
sg15
I6
sg16
I01
sa(dp525
g8
I00
sg9
F0.016489534884385648
sg10
F8.8912810565070686
sg11
I509
sg12
I0
sg13
g14
sg15
I6
sg16
I01
sa(dp526
g8
I00
sg9
F0.016657172882332816
sg10
F8.9079755773104807
sg11
I510
sg12
I0
sg13
g14
sg15
I6
sg16
I01
sa(dp527
g8
I00
sg9
F0.016859592913078814
sg10
F8.9249303931678696
sg11
I511
sg12
I0
sg13
g14
sg15
I6
sg16
I01
sa(dp528
g8
I00
sg9
F0.016679125477367052
sg10
F8.9417044564906973
sg11
I512
sg12
I0
sg13
g14
sg15
I6
sg16
I01
sa(dp529
g8
I00
sg9
F0.01656793700885828
sg10
F8.9581535073689338
sg11
I513
sg12
I0
sg13
g14
sg15
I6
sg16
I01
sa(dp530
g8
I00
sg9
F0.016723885963074281
sg10
F8.9748540152436362
sg11
I514
sg12
I0
sg13
g14
sg15
I6
sg16
I01
sa(dp531
g8
I00
sg9
F0.016690814521098218
sg10
F8.9915519572305129
sg11
I515
sg12
I0
sg13
g14
sg15
I6
sg16
I01
sa(dp532
g8
I00
sg9
F0.016624101440356753
sg10
F9.008167790810603
sg11
I516
sg12
I0
sg13
g14
sg15
I6
sg16
I00
sa(dp533
g8
I00
sg9
F0.016689389027760626
sg10
F9.0248529033588056
sg11
I517
sg12
I0
sg13
g14
sg15
I6
sg16
I00
sa(dp534
g8
I00
sg9
F0.016642062654682377
sg10
F9.0415579728119155
sg11
I518
sg12
I0
sg13
g14
sg15
I6
sg16
I00
sa(dp535
g8
I00
sg9
F0.01667171291228442
sg10
F9.058227690034073
sg11
I519
sg12
I0
sg13
g14
sg15
I6
sg16
I00
sa(dp536
g8
I00
sg9
F0.016697371789632598
sg10
F9.074995481186761
sg11
I520
sg12
I0
sg13
g14
sg15
I6
sg16
I00
sa(dp537
g8
I00
sg9
F0.016617259073427704
sg10
F9.091573396648073
sg11
I521
sg12
I0
sg13
g14
sg15
I6
sg16
I00
sa(dp538
g8
I00
sg9
F0.016658028177971573
sg10
F9.108195502397848
sg11
I522
sg12
I0
sg13
g14
sg15
I6
sg16
I00
sa(dp539
g8
I00
sg9
F0.016665725840994128
sg10
F9.124860087844354
sg11
I523
sg12
I0
sg13
g14
sg15
I6
sg16
I00
sa(dp540
g8
I00
sg9
F0.016667721531575808
sg10
F9.1415329411515813
sg11
I524
sg12
I0
sg13
g14
sg15
I6
sg16
I00
sa(dp541
g8
I00
sg9
F0.016654606994507049
sg10
F9.1581978116969367
sg11
I525
sg12
I0
sg13
g14
sg15
I6
sg16
I00
sa(dp542
g8
I00
sg9
F0.016670002320552157
sg10
F9.1748518484941997
sg11
I526
sg12
I0
sg13
g14
sg15
I6
sg16
I00
sa(dp543
g8
I00
sg9
F0.016642062654682377
sg10
F9.1915218508147518
sg11
I527
sg12
I0
sg13
g14
sg15
I6
sg16
I00
sa(dp544
g8
I00
sg9
F0.016584757828695729
sg10
F9.2080957748953551
sg11
I528
sg12
I0
sg13
g14
sg15
I6
sg16
I00
sa(dp545
g8
I00
sg9
F0.016777199407442822
sg10
F9.2248712637110657
sg11
I529
sg12
I0
sg13
g14
sg15
I6
sg16
I00
sa(dp546
g8
I00
sg9
F0.016652326205530699
sg10
F9.2416116853946733
sg11
I530
sg12
I0
sg13
g14
sg15
I6
sg16
I00
sa(dp547
g8
I00
sg9
F0.016596731971276313
sg10
F9.2580547492016194
sg11
I531
sg12
I0
sg13
g14
sg15
I6
sg16
I00
sa(dp548
g8
I00
sg9
F0.016706494945992745
sg10
F9.2748145575924354
sg11
I532
sg12
I0
sg13
g14
sg15
I6
sg16
I00
sa(dp549
g8
I00
sg9
F0.016655177191751136
sg10
F9.2914919724776155
sg11
I533
sg12
I0
sg13
g14
sg15
I6
sg16
I00
sa(dp550
g8
I00
sg9
F0.016707065143236832
sg10
F9.3081856379849341
sg11
I534
sg12
I0
sg13
g14
sg15
I6
sg16
I00
sa(dp551
g8
I00
sg9
F0.016681406265888654
sg10
F9.3248676144485216
sg11
I535
sg12
I0
sg13
g14
sg15
I6
sg16
I00
sa(dp552
g8
I00
sg9
F0.016650045416554349
sg10
F9.3415196555552029
sg11
I536
sg12
I0
sg13
g14
sg15
I6
sg16
I00
sa(dp553
g8
I00
sg9
F0.016668006629970478
sg10
F9.3581762582398369
sg11
I537
sg12
I0
sg13
g14
sg15
I6
sg16
I00
sa(dp554
g8
I00
sg9
F0.01666258975637902
sg10
F9.3748425542785299
sg11
I538
sg12
I0
sg13
g14
sg15
I6
sg16
I00
sa(dp555
g8
I00
sg9
F0.01666287485477369
sg10
F9.3915091354156175
sg11
I539
sg12
I0
sg13
g14
sg15
I6
sg16
I00
sa(dp556
g8
I00
sg9
F0.016666581137087633
sg10
F9.4082478465074928
sg11
I540
sg12
I0
sg13
g14
sg15
I6
sg16
I00
sa(dp557
g8
I00
sg9
F0.016654892092901719
sg10
F9.4248517059445476
sg11
I541
sg12
I0
sg13
g14
sg15
I6
sg16
I00
sa(dp558
g8
I00
sg9
F0.016655462290600553
sg10
F9.4414869262318462
sg11
I542
sg12
I0
sg13
g14
sg15
I6
sg16
I00
sa(dp559
g8
I00
sg9
F0.016675704292993032
sg10
F9.4581620603280498
sg11
I543
sg12
I0
sg13
g14
sg15
I6
sg16
I00
sa(dp560
g8
I00
sg9
F0.016646054035390989
sg10
F9.4748083994618355
sg11
I544
sg12
I0
sg13
g14
sg15
I6
sg16
I00
sa(dp561
g8
I00
sg9
F0.016660308967402671
sg10
F9.491461580963005
sg11
I545
sg12
I0
sg13
g14
sg15
I6
sg16
I00
sa(dp562
g8
I00
sg9
F0.016630943807285803
sg10
F9.5081030734204433
sg11
I546
sg12
I0
sg13
g14
sg15
I6
sg16
I00
sa(dp563
g8
I00
sg9
F0.016718183990178659
sg10
F9.5248434951040508
sg11
I547
sg12
I0
sg13
g14
sg15
I6
sg16
I00
sa(dp564
g8
I00
sg9
F0.016604999831997702
sg10
F9.5414265423410143
sg11
I548
sg12
I0
sg13
g14
sg15
I6
sg16
I00
sa(dp565
g8
I00
sg9
F0.016704784354260482
sg10
F9.5581219184400652
sg11
I549
sg12
I0
sg13
g14
sg15
I6
sg16
I00
sa(dp566
g8
I00
sg9
F0.016653466599564126
sg10
F9.5748611997291846
sg11
I550
sg12
I0
sg13
g14
sg15
I6
sg16
I00
sa(dp567
g8
I00
sg9
F0.016656317586239311
sg10
F9.5914322728235675
sg11
I551
sg12
I0
sg13
g14
sg15
I6
sg16
I00
sa(dp568
g8
I00
sg9
F0.016623816341962083
sg10
F9.6080520977843662
sg11
I552
sg12
I0
sg13
g14
sg15
I6
sg16
I00
sa(dp569
g8
I00
sg9
F0.016692525112830481
sg10
F9.6247608735193353
sg11
I553
sg12
I0
sg13
g14
sg15
I6
sg16
I00
sa(dp570
g8
I00
sg9
F0.0166691470249134
sg10
F9.641415765612237
sg11
I554
sg12
I0
sg13
g14
sg15
I6
sg16
I00
sa(dp571
g8
I00
sg9
F0.01666287485477369
sg10
F9.658078355368616
sg11
I555
sg12
I0
sg13
g14
sg15
I6
sg16
I00
sa(dp572
g8
I00
sg9
F0.016657743079122156
sg10
F9.6747406600261456
sg11
I556
sg12
I0
sg13
g14
sg15
I6
sg16
I00
sa(dp573
g8
I00
sg9
F0.016660023868553253
sg10
F9.6913927011328269
sg11
I557
sg12
I0
sg13
g14
sg15
I6
sg16
I00
sa(dp574
g8
I00
sg9
F0.016661164263041428
sg10
F9.7080512995080426
sg11
I558
sg12
I0
sg13
g14
sg15
I6
sg16
I00
sa(dp575
g8
I00
sg9
F0.016648619923216756
sg10
F9.7247121786722346
sg11
I559
sg12
I0
sg13
g14
sg15
I6
sg16
I00
sa(dp576
g8
I00
sg9
F0.016672283109528507
sg10
F9.7414397709176228
sg11
I560
sg12
I0
sg13
g14
sg15
I6
sg16
I00
sa(dp577
g8
I00
sg9
F0.016626097130938433
sg10
F9.7580017208551908
sg11
I561
sg12
I0
sg13
g14
sg15
I6
sg16
I00
sa(dp578
g8
I00
sg9
F0.01667142781388975
sg10
F9.7747216154371017
sg11
I562
sg12
I0
sg13
g14
sg15
I6
sg16
I00
sa(dp579
g8
I00
sg9
F0.01673272402058501
sg10
F9.7914075832813978
sg11
I563
sg12
I0
sg13
g14
sg15
I6
sg16
I00
sa(dp580
g8
I00
sg9
F0.016810841046662972
sg10
F9.8082152882434457
sg11
I564
sg12
I0
sg13
g14
sg15
I6
sg16
I00
sa(dp581
g8
I00
sg9
F0.016464446204281558
sg10
F9.8246908532946691
sg11
I565
sg12
I0
sg13
g14
sg15
I6
sg16
I00
sa(dp582
g8
I00
sg9
F0.016650330514949019
sg10
F9.8413337712449902
sg11
I566
sg12
I0
sg13
g14
sg15
I6
sg16
I00
sa(dp583
g8
I00
sg9
F0.016658883474065078
sg10
F9.8579900888312295
sg11
I567
sg12
I0
sg13
g14
sg15
I6
sg16
I00
sa(dp584
g8
I00
sg9
F0.016666010939843545
sg10
F9.8746640825324903
sg11
I568
sg12
I0
sg13
g14
sg15
I6
sg16
I00
sa(dp585
g8
I00
sg9
F0.016610701804438577
sg10
F9.8912656611805687
sg11
I569
sg12
I0
sg13
g14
sg15
I6
sg16
I00
sa(dp586
g8
I00
sg9
F0.016697086690783181
sg10
F9.9080300311497922
sg11
I570
sg12
I0
sg13
g14
sg15
I6
sg16
I00
sa(dp587
g8
I00
sg9
F0.016676559589541284
sg10
F9.9246541325901489
sg11
I571
sg12
I0
sg13
g14
sg15
I6
sg16
I00
sa(dp588
g8
I00
sg9
F0.016555107570638938
sg10
F9.9412731022553089
sg11
I572
sg12
I0
sg13
g14
sg15
I6
sg16
I00
sa(dp589
g8
I00
sg9
F0.016723030666980776
sg10
F9.957918015895757
sg11
I573
sg12
I0
sg13
g14
sg15
I6
sg16
I00
sa(dp590
g8
I00
sg9
F0.016654606994052301
sg10
F9.9745871629206704
sg11
I574
sg12
I0
sg13
g14
sg15
I6
sg16
I00
sa(dp591
g8
I00
sg9
F0.016648334824367339
sg10
F9.9912275149831657
sg11
I575
sg12
I0
sg13
g14
sg15
I6
sg16
I00
sa(dp592
g8
I00
sg9
F0.016716758497295814
sg10
F10.007941137395392
sg11
I576
sg12
I1
sg13
g14
sg15
I6
sg16
I01
sa(dp593
g8
I00
sg9
F0.016646909331029747
sg10
F10.024595459291049
sg11
I577
sg12
I1
sg13
g14
sg15
I6
sg16
I01
sa(dp594
g8
I00
sg9
F0.016680550970249897
sg10
F10.041268312598277
sg11
I578
sg12
I1
sg13
g14
sg15
I6
sg16
I01
sa(dp595
g8
I00
sg9
F0.016847333672103559
sg10
F10.058115646269925
sg11
I579
sg12
I1
sg13
g14
sg15
I6
sg16
I01
sa(dp596
g8
I00
sg9
F0.016444204201434331
sg10
F10.074746590077666
sg11
I580
sg12
I1
sg13
g14
sg15
I6
sg16
I01
sa(dp597
g8
I00
sg9
F0.01670107807194654
sg10
F10.0912617838394
sg11
I581
sg12
I1
sg13
g14
sg15
I6
sg16
I01
sa(dp598
g8
I00
sg9
F0.016660023868098506
sg10
F10.107921522609104
sg11
I582
sg12
I1
sg13
g14
sg15
I6
sg16
I01
sa(dp599
g8
I00
sg9
F0.016651756008286611
sg10
F10.124582401773296
sg11
I583
sg12
I1
sg13
g14
sg15
I6
sg16
I01
sa(dp600
g8
I00
sg9
F0.01667171291228442
sg10
F10.141242140543454
sg11
I584
sg12
I1
sg13
g14
sg15
I6
sg16
I01
sa(dp601
g8
I00
sg9
F0.016564515825848503
sg10
F10.157875650238566
sg11
I585
sg12
I1
sg13
g14
sg15
I6
sg16
I01
sa(dp602
g8
I00
sg9
F0.016755817009652674
sg10
F10.17456874554864
sg11
I586
sg12
I1
sg13
g14
sg15
I6
sg16
I01
sa(dp603
g8
I00
sg9
F0.016648334824822086
sg10
F10.191216510176218
sg11
I587
sg12
I1
sg13
g14
sg15
I6
sg16
I01
sa(dp604
g8
I00
sg9
F0.016677129786330624
sg10
F10.207893354864154
sg11
I588
sg12
I1
sg13
g14
sg15
I6
sg16
I01
sa(dp605
g8
I00
sg9
F0.016660308966947923
sg10
F10.224566208170927
sg11
I589
sg12
I1
sg13
g14
sg15
I6
sg16
I01
sa(dp606
g8
I00
sg9
F0.016626382229787851
sg10
F10.241369351554567
sg11
I590
sg12
I1
sg13
g14
sg15
I6
sg16
I01
sa(dp607
g8
I00
sg9
F0.016688818830516539
sg10
F10.257896804557276
sg11
I591
sg12
I1
sg13
g14
sg15
I6
sg16
I01
sa(dp608
g8
I00
sg9
F0.016656602684633981
sg10
F10.274533735436307
sg11
I592
sg12
I1
sg13
g14
sg15
I6
sg16
I01
sa(dp609
g8
I00
sg9
F0.016668291729274642
sg10
F10.291192904008767
sg11
I593
sg12
I1
sg13
g14
sg15
I6
sg16
I01
sa(dp610
g8
I00
sg9
F0.016599868056346168
sg10
F10.307798188939614
sg11
I594
sg12
I1
sg13
g14
sg15
I6
sg16
I01
sa(dp611
g8
I00
sg9
F0.016654606994052301
sg10
F10.324443387678912
sg11
I595
sg12
I1
sg13
g14
sg15
I6
sg16
I01
sa(dp612
g8
I00
sg9
F0.016549975795442151
sg10
F10.34103869415685
sg11
I596
sg12
I1
sg13
g14
sg15
I6
sg16
I01
sa(dp613
g8
I00
sg9
F0.016959377435796341
sg10
F10.357953026008545
sg11
I597
sg12
I1
sg13
g14
sg15
I6
sg16
I01
sa(dp614
g8
I00
sg9
F0.016548835400499229
sg10
F10.374501861409044
sg11
I598
sg12
I1
sg13
g14
sg15
I6
sg16
I01
sa(dp615
g8
I00
sg9
F0.016652896402320039
sg10
F10.391156753501946
sg11
I599
sg12
I1
sg13
g14
sg15
I6
sg16
I01
sa(dp616
g8
I00
sg9
F0.016624671637600841
sg10
F10.407880354366171
sg11
I600
sg12
I1
sg13
g14
sg15
I6
sg16
I01
sa(dp617
g8
I00
sg9
F0.016687963534877781
sg10
F10.424484498902075
sg11
I601
sg12
I1
sg13
g14
sg15
I6
sg16
I01
sa(dp618
g8
I00
sg9
F0.016667436433181138
sg10
F10.441138535699338
sg11
I602
sg12
I1
sg13
g14
sg15
I6
sg16
I01
sa(dp619
g8
I00
sg9
F0.016596731971276313
sg10
F10.45774382062973
sg11
I603
sg12
I1
sg13
g14
sg15
I6
sg16
I01
sa(dp620
g8
I00
sg9
F0.016658598375215661
sg10
F10.474404414695528
sg11
I604
sg12
I1
sg13
g14
sg15
I6
sg16
I01
sa(dp621
g8
I00
sg9
F0.016673138405622012
sg10
F10.491063868366382
sg11
I605
sg12
I1
sg13
g14
sg15
I6
sg16
I01
sa(dp622
g8
I00
sg9
F0.016661734460285516
sg10
F10.507745844829969
sg11
I606
sg12
I1
sg13
g14
sg15
I6
sg16
I01
sa(dp623
g8
I00
sg9
F0.016716188299596979
sg10
F10.524454335466544
sg11
I607
sg12
I1
sg13
g14
sg15
I6
sg16
I01
sa(dp624
g8
I00
sg9
F0.01666487054535537
sg10
F10.5411186358142
sg11
I608
sg12
I1
sg13
g14
sg15
I6
sg16
I01
sa(dp625
g8
I00
sg9
F0.016657172882332816
sg10
F10.55777495340044
sg11
I609
sg12
I1
sg13
g14
sg15
I6
sg16
I01
sa(dp626
g8
I00
sg9
F0.016659453670854418
sg10
F10.574500264856397
sg11
I610
sg12
I1
sg13
g14
sg15
I6
sg16
I01
sa(dp627
g8
I00
sg9
F0.016638356372368435
sg10
F10.591069057161803
sg11
I611
sg12
I1
sg13
g14
sg15
I6
sg16
I01
sa(dp628
g8
I00
sg9
F0.016687963534877781
sg10
F10.607761867373029
sg11
I612
sg12
I1
sg13
g14
sg15
I6
sg16
I01
sa(dp629
g8
I00
sg9
F0.016699367480214278
sg10
F10.624448120316174
sg11
I613
sg12
I1
sg13
g14
sg15
I6
sg16
I01
sa(dp630
g8
I00
sg9
F0.016551401287870249
sg10
F10.64109132336489
sg11
I614
sg12
I1
sg13
g14
sg15
I6
sg16
I01
sa(dp631
g8
I00
sg9
F0.016731583626096835
sg10
F10.657747070753885
sg11
I615
sg12
I1
sg13
g14
sg15
I6
sg16
I01
sa(dp632
g8
I00
sg9
F0.016624956736450258
sg10
F10.674360908643393
sg11
I616
sg12
I1
sg13
g14
sg15
I6
sg16
I01
sa(dp633
g8
I00
sg9
F0.016657743079122156
sg10
F10.691031196062795
sg11
I617
sg12
I1
sg13
g14
sg15
I6
sg16
I01
sa(dp634
g8
I00
sg9
F0.016675704293447779
sg10
F10.707695781509301
sg11
I618
sg12
I1
sg13
g14
sg15
I6
sg16
I01
sa(dp635
g8
I00
sg9
F0.016648334824367339
sg10
F10.724338414361227
sg11
I619
sg12
I1
sg13
g14
sg15
I6
sg16
I01
sa(dp636
g8
I00
sg9
F0.016675704293447779
sg10
F10.741082542327149
sg11
I620
sg12
I1
sg13
g14
sg15
I6
sg16
I01
sa(dp637
g8
I00
sg9
F0.016612412396625587
sg10
F10.757638220095032
sg11
I621
sg12
I1
sg13
g14
sg15
I6
sg16
I01
sa(dp638
g8
I00
sg9
F0.0166018637464731
sg10
F10.774226969304436
sg11
I622
sg12
I1
sg13
g14
sg15
I6
sg16
I01
sa(dp639
g8
I00
sg9
F0.016731013428852748
sg10
F10.790978509834986
sg11
I623
sg12
I1
sg13
g14
sg15
I6
sg16
I01
sa(dp640
g8
I00
sg9
F0.016660023868553253
sg10
F10.807639674098027
sg11
I624
sg12
I1
sg13
g14
sg15
I6
sg16
I01
sa(dp641
g8
I00
sg9
F0.016666581137087633
sg10
F10.824289434415732
sg11
I625
sg12
I1
sg13
g14
sg15
I6
sg16
I01
sa(dp642
g8
I00
sg9
F0.016684827449807926
sg10
F10.840972551273353
sg11
I626
sg12
I1
sg13
g14
sg15
I6
sg16
I01
sa(dp643
g8
I00
sg9
F0.016697656888027268
sg10
F10.857681612107172
sg11
I627
sg12
I1
sg13
g14
sg15
I6
sg16
I01
sa(dp644
g8
I00
sg9
F0.01663750107627493
sg10
F10.874308849632598
sg11
I628
sg12
I1
sg13
g14
sg15
I6
sg16
I01
sa(dp645
g8
I00
sg9
F0.016858167420195969
sg10
F10.891166161757155
sg11
I629
sg12
I1
sg13
g14
sg15
I6
sg16
I01
sa(dp646
g8
I00
sg9
F0.016432230058853747
sg10
F10.907681355518434
sg11
I630
sg12
I1
sg13
g14
sg15
I6
sg16
I01
sa(dp647
g8
I00
sg9
F0.016623816341507336
sg10
F10.924227625031563
sg11
I631
sg12
I1
sg13
g14
sg15
I6
sg16
I01
sa(dp648
g8
I00
sg9
F0.016587893913765583
sg10
F10.940804400098386
sg11
I632
sg12
I1
sg13
g14
sg15
I6
sg16
I01
sa(dp649
g8
I00
sg9
F0.016712767116132454
sg10
F10.957432778018301
sg11
I633
sg12
I1
sg13
g14
sg15
I6
sg16
I01
sa(dp650
g8
I00
sg9
F0.016670002320552157
sg10
F10.974104205832191
sg11
I634
sg12
I1
sg13
g14
sg15
I6
sg16
I01
sa(dp651
g8
I00
sg9
F0.016690814521098218
sg10
F10.990891098593238
sg11
I635
sg12
I1
sg13
g14
sg15
I6
sg16
I01
sa(dp652
g8
I00
sg9
F0.016661449361890845
sg10
F11.007565947591047
sg11
I636
sg12
I1
sg13
g14
sg15
I6
sg16
I00
sa(dp653
g8
I00
sg9
F0.01667399370126077
sg10
F11.024218843993367
sg11
I637
sg12
I1
sg13
g14
sg15
I6
sg16
I00
sa(dp654
g8
I00
sg9
F0.016658883474065078
sg10
F11.0408760168757
sg11
I638
sg12
I1
sg13
g14
sg15
I6
sg16
I00
sa(dp655
g8
I00
sg9
F0.016655177191751136
sg10
F11.05753803643438
sg11
I639
sg12
I1
sg13
g14
sg15
I6
sg16
I00
sa(dp656
g8
I00
sg9
F0.016658028177971573
sg10
F11.074269905158872
sg11
I640
sg12
I1
sg13
g14
sg15
I6
sg16
I00
sa(dp657
g8
I00
sg9
F0.016655462290145806
sg10
F11.090858939467125
sg11
I641
sg12
I1
sg13
g14
sg15
I6
sg16
I00
sa(dp658
g8
I00
sg9
F0.016657743079576903
sg10
F11.107503853108028
sg11
I642
sg12
I1
sg13
g14
sg15
I6
sg16
I00
sa(dp659
g8
I00
sg9
F0.01667598939184245
sg10
F11.124177846809744
sg11
I643
sg12
I1
sg13
g14
sg15
I6
sg16
I00
sa(dp660
g8
I00
sg9
F0.016653751698413544
sg10
F11.140847278933052
sg11
I644
sg12
I1
sg13
g14
sg15
I6
sg16
I00
sa(dp661
g8
I00
sg9
F0.016658883474065078
sg10
F11.157501030631465
sg11
I645
sg12
I1
sg13
g14
sg15
I6
sg16
I00
sa(dp662
g8
I00
sg9
F0.016777769605141657
sg10
F11.174269391981397
sg11
I646
sg12
I1
sg13
g14
sg15
I6
sg16
I00
sa(dp663
g8
I00
sg9
F0.016602433943717188
sg10
F11.190897199704068
sg11
I647
sg12
I1
sg13
g14
sg15
I6
sg16
I00
sa(dp664
g8
I00
sg9
F0.016607280620974052
sg10
F11.207479391644938
sg11
I648
sg12
I1
sg13
g14
sg15
I6
sg16
I00
sa(dp665
g8
I00
sg9
F0.016716758496841067
sg10
F11.224195009747291
sg11
I649
sg12
I1
sg13
g14
sg15
I6
sg16
I00
sa(dp666
g8
I00
sg9
F0.016677129786785372
sg10
F11.240962515801584
sg11
I650
sg12
I1
sg13
g14
sg15
I6
sg16
I00
sa(dp667
g8
I00
sg9
F0.016649760317704931
sg10
F11.257532448501024
sg11
I651
sg12
I1
sg13
g14
sg15
I6
sg16
I00
sa(dp668
g8
I00
sg9
F0.016658883473610331
sg10
F11.274191617073939
sg11
I652
sg12
I1
sg13
g14
sg15
I6
sg16
I00
sa(dp669
g8
I00
sg9
F0.016658313276820991
sg10
F11.290857628013327
sg11
I653
sg12
I1
sg13
g14
sg15
I6
sg16
I00
sa(dp670
g8
I00
sg9
F0.016660594065797341
sg10
F11.307507673429882
sg11
I654
sg12
I1
sg13
g14
sg15
I6
sg16
I00
sa(dp671
g8
I00
sg9
F0.01666743643272639
sg10
F11.32416798239683
sg11
I655
sg12
I1
sg13
g14
sg15
I6
sg16
I00
sa(dp672
g8
I00
sg9
F0.016658028178426321
sg10
F11.340841405901301
sg11
I656
sg12
I1
sg13
g14
sg15
I6
sg16
I00
sa(dp673
g8
I00
sg9
F0.016660308966947923
sg10
F11.357490310922913
sg11
I657
sg12
I1
sg13
g14
sg15
I6
sg16
I00
sa(dp674
g8
I00
sg9
F0.016656887783483398
sg10
F11.374155181468268
sg11
I658
sg12
I1
sg13
g14
sg15
I6
sg16
I00
sa(dp675
g8
I00
sg9
F0.016601008450834343
sg10
F11.390761321694299
sg11
I659
sg12
I1
sg13
g14
sg15
I6
sg16
I00
sa(dp676
g8
I00
sg9
F0.016727877343782893
sg10
F11.40755220583651
sg11
I660
sg12
I1
sg13
g14
sg15
I6
sg16
I00
sa(dp677
g8
I00
sg9
F0.016638071273519017
sg10
F11.42428435965985
sg11
I661
sg12
I1
sg13
g14
sg15
I6
sg16
I00
sa(dp678
g8
I00
sg9
F0.016676844687935954
sg10
F11.440795276942026
sg11
I662
sg12
I1
sg13
g14
sg15
I6
sg16
I00
sa(dp679
g8
I00
sg9
F0.016718183990178659
sg10
F11.457505763268728
sg11
I663
sg12
I1
sg13
g14
sg15
I6
sg16
I00
sa(dp680
g8
I00
sg9
F0.016618399467461131
sg10
F11.474186599337827
sg11
I664
sg12
I1
sg13
g14
sg15
I6
sg16
I00
sa(dp681
g8
I00
sg9
F0.016664300348111283
sg10
F11.490798156438359
sg11
I665
sg12
I1
sg13
g14
sg15
I6
sg16
I00
sa(dp682
g8
I00
sg9
F0.016609276311100984
sg10
F11.507407147651065
sg11
I666
sg12
I1
sg13
g14
sg15
I6
sg16
I00
sa(dp683
g8
I00
sg9
F0.016678270181273547
sg10
F11.524084277437396
sg11
I667
sg12
I1
sg13
g14
sg15
I6
sg16
I00
sa(dp684
g8
I00
sg9
F0.016683972153714421
sg10
F11.540768819788354
sg11
I668
sg12
I1
sg13
g14
sg15
I6
sg16
I00
sa(dp685
g8
I00
sg9
F0.016626952427031938
sg10
F11.557391780834223
sg11
I669
sg12
I1
sg13
g14
sg15
I6
sg16
I00
sa(dp686
g8
I00
sg9
F0.01666715133433172
sg10
F11.57412336446032
sg11
I670
sg12
I1
sg13
g14
sg15
I6
sg16
I00
sa(dp687
g8
I00
sg9
F0.016693095310074568
sg10
F11.590759725142107
sg11
I671
sg12
I1
sg13
g14
sg15
I6
sg16
I00
sa(dp688
g8
I00
sg9
F0.016638641470763105
sg10
F11.607388958358115
sg11
I672
sg12
I1
sg13
g14
sg15
I6
sg16
I00
sa(dp689
g8
I00
sg9
F0.016668576827669312
sg10
F11.624052118311283
sg11
I673
sg12
I1
sg13
g14
sg15
I6
sg16
I00
sa(dp690
g8
I00
sg9
F0.016613552790659014
sg10
F11.640678500540616
sg11
I674
sg12
I1
sg13
g14
sg15
I6
sg16
I00
sa(dp691
g8
I00
sg9
F0.016625526933694346
sg10
F11.657300036093602
sg11
I675
sg12
I1
sg13
g14
sg15
I6
sg16
I00
sa(dp692
g8
I00
sg9
F0.016702503565284132
sg10
F11.673995412192653
sg11
I676
sg12
I1
sg13
g14
sg15
I6
sg16
I00
sa(dp693
g8
I00
sg9
F0.016646624232180329
sg10
F11.690664844315961
sg11
I677
sg12
I1
sg13
g14
sg15
I6
sg16
I00
sa(dp694
g8
I00
sg9
F0.016701363170795958
sg10
F11.707345965483455
sg11
I678
sg12
I1
sg13
g14
sg15
I6
sg16
I00
sa(dp695
g8
I00
sg9
F0.01666686623593705
sg10
F11.724014827409974
sg11
I679
sg12
I1
sg13
g14
sg15
I6
sg16
I00
sa(dp696
g8
I00
sg9
F0.016598442563008575
sg10
F11.74069452308413
sg11
I680
sg12
I1
sg13
g14
sg15
I6
sg16
I00
sa(dp697
g8
I00
sg9
F0.016810270849418885
sg10
F11.757435229866587
sg11
I681
sg12
I1
sg13
g14
sg15
I6
sg16
I00
sa(dp698
g8
I00
sg9
F0.016590744899986021
sg10
F11.774013145327899
sg11
I682
sg12
I1
sg13
g14
sg15
I6
sg16
I00
sa(dp699
g8
I00
sg9
F0.016655177191751136
sg10
F11.790674594689335
sg11
I683
sg12
I1
sg13
g14
sg15
I6
sg16
I00
sa(dp700
g8
I00
sg9
F0.01666515564375004
sg10
F11.807333193064551
sg11
I684
sg12
I1
sg13
g14
sg15
I6
sg16
I00
sa(dp701
g8
I00
sg9
F0.016673993701715517
sg10
F11.824007471865116
sg11
I685
sg12
I1
sg13
g14
sg15
I6
sg16
I00
sa(dp702
g8
I00
sg9
F0.016650045416099601
sg10
F11.840662078859168
sg11
I686
sg12
I1
sg13
g14
sg15
I6
sg16
I00
sa(dp703
g8
I00
sg9
F0.016666010939843545
sg10
F11.857377411863126
sg11
I687
sg12
I1
sg13
g14
sg15
I6
sg16
I00
sa(dp704
g8
I00
sg9
F0.016660308966947923
sg10
F11.873983266990763
sg11
I688
sg12
I1
sg13
g14
sg15
I6
sg16
I00
sa(dp705
g8
I00
sg9
F0.016659453671309166
sg10
F11.89064699714163
sg11
I689
sg12
I1
sg13
g14
sg15
I6
sg16
I00
sa(dp706
g8
I00
sg9
F0.016642632851926464
sg10
F11.907353492087623
sg11
I690
sg12
I1
sg13
g14
sg15
I6
sg16
I00
sa(dp707
g8
I00
sg9
F0.016676559589086537
sg10
F11.923961057806991
sg11
I691
sg12
I1
sg13
g14
sg15
I6
sg16
I00
sa(dp708
g8
I00
sg9
F0.01666515564375004
sg10
F11.940635621705951
sg11
I692
sg12
I1
sg13
g14
sg15
I6
sg16
I00
sa(dp709
g8
I00
sg9
F0.016600723352439672
sg10
F11.957233779170565
sg11
I693
sg12
I1
sg13
g14
sg15
I6
sg16
I00
sa(dp710
g8
I00
sg9
F0.016648905021611426
sg10
F11.973882969291026
sg11
I694
sg12
I1
sg13
g14
sg15
I6
sg16
I00
sa(dp711
g8
I00
sg9
F0.016672853307227342
sg10
F11.990546984540288
sg11
I695
sg12
I1
sg13
g14
sg15
I6
sg16
I00
sa(dp712
g8
I00
sg9
F0.016665725840994128
sg10
F12.007209859395061
sg11
I696
sg12
I1
sg13
g14
sg15
I3
sg16
I01
sa(dp713
g8
I00
sg9
F0.01662894811715887
sg10
F12.023873874644323
sg11
I697
sg12
I1
sg13
g14
sg15
I3
sg16
I01
sa(dp714
g8
I00
sg9
F0.016688818830516539
sg10
F12.040532758118388
sg11
I698
sg12
I1
sg13
g14
sg15
I3
sg16
I01
sa(dp715
g8
I00
sg9
F0.016663445052472525
sg10
F12.05719392238143
sg11
I699
sg12
I1
sg13
g14
sg15
I3
sg16
I01
sa(dp716
g8
I00
sg9
F0.016649760317250184
sg10
F12.073932348374456
sg11
I700
sg12
I1
sg13
g14
sg15
I3
sg16
I01
sa(dp717
g8
I00
sg9
F0.016665155644204788
sg10
F12.090505702257815
sg11
I701
sg12
I1
sg13
g14
sg15
I3
sg16
I01
sa(dp718
g8
I00
sg9
F0.016668291728819895
sg10
F12.107176274775611
sg11
I702
sg12
I1
sg13
g14
sg15
I3
sg16
I01
sa(dp719
g8
I00
sg9
F0.016645483838146902
sg10
F12.123840290025328
sg11
I703
sg12
I1
sg13
g14
sg15
I3
sg16
I01
sa(dp720
g8
I00
sg9
F0.01667142781388975
sg10
F12.140492331131554
sg11
I704
sg12
I1
sg13
g14
sg15
I3
sg16
I01
sa(dp721
g8
I00
sg9
F0.016650045416099601
sg10
F12.15714123615362
sg11
I705
sg12
I1
sg13
g14
sg15
I3
sg16
I01
sa(dp722
g8
I00
sg9
F0.016662019558680186
sg10
F12.173818365939951
sg11
I706
sg12
I1
sg13
g14
sg15
I3
sg16
I01
sa(dp723
g8
I00
sg9
F0.016668576827669312
sg10
F12.19047154744112
sg11
I707
sg12
I1
sg13
g14
sg15
I3
sg16
I01
sa(dp724
g8
I00
sg9
F0.016704499255411065
sg10
F12.207180608274939
sg11
I708
sg12
I1
sg13
g14
sg15
I3
sg16
I01
sa(dp725
g8
I00
sg9
F0.016670002321006905
sg10
F12.223862014541282
sg11
I709
sg12
I1
sg13
g14
sg15
I3
sg16
I01
sa(dp726
g8
I00
sg9
F0.016609846508345072
sg10
F12.24052859567837
sg11
I710
sg12
I1
sg13
g14
sg15
I3
sg16
I01
sa(dp727
g8
I00
sg9
F0.016681976463587489
sg10
F12.257143859060761
sg11
I711
sg12
I1
sg13
g14
sg15
I3
sg16
I01
sa(dp728
g8
I00
sg9
F0.016700507874702453
sg10
F12.273852064598941
sg11
I712
sg12
I1
sg13
g14
sg15
I3
sg16
I01
sa(dp729
g8
I00
sg9
F0.016575349573486164
sg10
F12.290465047192356
sg11
I713
sg12
I1
sg13
g14
sg15
I3
sg16
I01
sa(dp730
g8
I00
sg9
F0.016676844687935954
sg10
F12.307162989179233
sg11
I714
sg12
I1
sg13
g14
sg15
I3
sg16
I01
sa(dp731
g8
I00
sg9
F0.016721034976853844
sg10
F12.323825864034006
sg11
I715
sg12
I1
sg13
g14
sg15
I3
sg16
I01
sa(dp732
g8
I00
sg9
F0.01660157864807843
sg10
F12.340416038736748
sg11
I716
sg12
I1
sg13
g14
sg15
I3
sg16
I01
sa(dp733
g8
I00
sg9
F0.016709060833818512
sg10
F12.357126239965055
sg11
I717
sg12
I1
sg13
g14
sg15
I3
sg16
I01
sa(dp734
g8
I00
sg9
F0.016676274490691867
sg10
F12.373813063105445
sg11
I718
sg12
I1
sg13
g14
sg15
I3
sg16
I01
sa(dp735
g8
I00
sg9
F0.0166377861746696
sg10
F12.390439730433627
sg11
I719
sg12
I1
sg13
g14
sg15
I3
sg16
I01
sa(dp736
g8
I00
sg9
F0.01667142781388975
sg10
F12.407182147807816
sg11
I720
sg12
I1
sg13
g14
sg15
I3
sg16
I01
sa(dp737
g8
I00
sg9
F0.016627237525426608
sg10
F12.423774318200685
sg11
I721
sg12
I1
sg13
g14
sg15
I3
sg16
I01
sa(dp738
g8
I00
sg9
F0.016651185810587776
sg10
F12.440389581583531
sg11
I722
sg12
I1
sg13
g14
sg15
I3
sg16
I01
sa(dp739
g8
I00
sg9
F0.0166691470249134
sg10
F12.457058158411201
sg11
I723
sg12
I1
sg13
g14
sg15
I3
sg16
I01
sa(dp740
g8
I00
sg9
F0.016657457980727486
sg10
F12.473738424282601
sg11
I724
sg12
I1
sg13
g14
sg15
I3
sg16
I01
sa(dp741
g8
I00
sg9
F0.016679410575761722
sg10
F12.490396737559422
sg11
I725
sg12
I1
sg13
g14
sg15
I3
sg16
I01
sa(dp742
g8
I00
sg9
F0.016681121167493984
sg10
F12.507432521429564
sg11
I726
sg12
I1
sg13
g14
sg15
I3
sg16
I01
sa(dp743
g8
I00
sg9
F0.016611842198926752
sg10
F12.524036951063863
sg11
I727
sg12
I1
sg13
g14
sg15
I3
sg16
I01
sa(dp744
g8
I00
sg9
F0.016647194429879164
sg10
F12.540665899181022
sg11
I728
sg12
I1
sg13
g14
sg15
I3
sg16
I01
sa(dp745
g8
I00
sg9
F0.016697086691237928
sg10
F12.557896405419342
sg11
I729
sg12
I1
sg13
g14
sg15
I3
sg16
I01
sa(dp746
g8
I00
sg9
F0.016617829270217044
sg10
F12.574171261031097
sg11
I730
sg12
I1
sg13
g14
sg15
I3
sg16
I01
sa(dp747
g8
I00
sg9
F0.016624956736450258
sg10
F12.590585814974474
sg11
I731
sg12
I1
sg13
g14
sg15
I3
sg16
I01
sa(dp748
g8
I00
sg9
F0.016720749877549679
sg10
F12.607343912773558
sg11
I732
sg12
I1
sg13
g14
sg15
I3
sg16
I01
sa(dp749
g8
I00
sg9
F0.016718754187422746
sg10
F12.624034157097412
sg11
I733
sg12
I1
sg13
g14
sg15
I3
sg16
I01
sa(dp750
g8
I00
sg9
F0.016648334824367339
sg10
F12.641022899692416
sg11
I734
sg12
I1
sg13
g14
sg15
I3
sg16
I01
sa(dp751
g8
I00
sg9
F0.01667342350447143
sg10
F12.657352209143937
sg11
I735
sg12
I1
sg13
g14
sg15
I3
sg16
I01
sa(dp752
g8
I00
sg9
F0.016664300348111283
sg10
F12.674019930675513
sg11
I736
sg12
I1
sg13
g14
sg15
I3
sg16
I01
sa(dp753
g8
I00
sg9
F0.016632084202228725
sg10
F12.690646027805997
sg11
I737
sg12
I1
sg13
g14
sg15
I3
sg16
I01
sa(dp754
g8
I00
sg9
F0.016687963534423034
sg10
F12.707338838017677
sg11
I738
sg12
I1
sg13
g14
sg15
I3
sg16
I01
sa(dp755
g8
I00
sg9
F0.016658883474065078
sg10
F12.724030507834868
sg11
I739
sg12
I1
sg13
g14
sg15
I3
sg16
I01
sa(dp756
g8
I00
sg9
F0.016614693185601936
sg10
F12.740717330974803
sg11
I740
sg12
I1
sg13
g14
sg15
I3
sg16
I01
sa(dp757
g8
I00
sg9
F0.016662304657529603
sg10
F12.757295531534965
sg11
I741
sg12
I1
sg13
g14
sg15
I3
sg16
I01
sa(dp758
g8
I00
sg9
F0.016652611303925369
sg10
F12.773961257375959
sg11
I742
sg12
I1
sg13
g14
sg15
I3
sg16
I01
sa(dp759
g8
I00
sg9
F0.016719894581910921
sg10
F12.790650646404174
sg11
I743
sg12
I1
sg13
g14
sg15
I3
sg16
I01
sa(dp760
g8
I00
sg9
F0.016589889603892516
sg10
F12.80725051446052
sg11
I744
sg12
I1
sg13
g14
sg15
I3
sg16
I01
sa(dp761
g8
I00
sg9
F0.01673272402058501
sg10
F12.823979532198791
sg11
I745
sg12
I1
sg13
g14
sg15
I3
sg16
I01
sa(dp762
g8
I00
sg9
F0.016672853307227342
sg10
F12.840947462593704
sg11
I746
sg12
I1
sg13
g14
sg15
I3
sg16
I01
sa(dp763
g8
I00
sg9
F0.016580481349137699
sg10
F12.857354318873604
sg11
I747
sg12
I1
sg13
g14
sg15
I3
sg16
I01
sa(dp764
g8
I00
sg9
F0.016728732639421651
sg10
F12.873631740373185
sg11
I748
sg12
I1
sg13
g14
sg15
I3
sg16
I01
sa(dp765
g8
I00
sg9
F0.016657743079576903
sg10
F12.890604517444899
sg11
I749
sg12
I1
sg13
g14
sg15
I3
sg16
I01
sa(dp766
g8
I00
sg9
F0.016660594065797341
sg10
F12.907348645410821
sg11
I750
sg12
I1
sg13
g14
sg15
I3
sg16
I01
sa(dp767
g8
I00
sg9
F0.01663579048408792
sg10
F12.923924565182006
sg11
I751
sg12
I1
sg13
g14
sg15
I3
sg16
I01
sa(dp768
g8
I00
sg9
F0.016676274490691867
sg10
F12.940589720825756
sg11
I752
sg12
I1
sg13
g14
sg15
I3
sg16
I01
sa(dp769
g8
I00
sg9
F0.016679125477367052
sg10
F12.957272552584982
sg11
I753
sg12
I1
sg13
g14
sg15
I3
sg16
I01
sa(dp770
g8
I00
sg9
F0.016659738769703836
sg10
F12.973940844313802
sg11
I754
sg12
I1
sg13
g14
sg15
I3
sg16
I01
sa(dp771
g8
I00
sg9
F0.016562805233661493
sg10
F12.99049623698329
sg11
I755
sg12
I1
sg13
g14
sg15
I3
sg16
I01
sa(dp772
g8
I00
sg9
F0.016564230726999085
sg10
F13.006661614718723
sg11
I756
sg12
I1
sg13
g14
sg15
I3
sg16
I00
sa(dp773
g8
I00
sg9
F0.016850469756718667
sg10
F13.02391578414381
sg11
I757
sg12
I1
sg13
g14
sg15
I3
sg16
I00
sa(dp774
g8
I00
sg9
F0.016644058345264057
sg10
F13.040831256389538
sg11
I758
sg12
I1
sg13
g14
sg15
I3
sg16
I00
sa(dp775
g8
I00
sg9
F0.016664585446505953
sg10
F13.057232980894241
sg11
I759
sg12
I1
sg13
g14
sg15
I3
sg16
I00
sa(dp776
g8
I00
sg9
F0.016676274490691867
sg10
F13.07395430096949
sg11
I760
sg12
I1
sg13
g14
sg15
I3
sg16
I00
sa(dp777
g8
I00
sg9
F0.016655177191751136
sg10
F13.09053022074022
sg11
I761
sg12
I1
sg13
g14
sg15
I3
sg16
I00
sa(dp778
g8
I00
sg9
F0.016660023868098506
sg10
F13.107204214441936
sg11
I762
sg12
I1
sg13
g14
sg15
I3
sg16
I00
sa(dp779
g8
I00
sg9
F0.016695091000656248
sg10
F13.124132231027943
sg11
I763
sg12
I1
sg13
g14
sg15
I3
sg16
I00
sa(dp780
g8
I00
sg9
F0.016530874186628353
sg10
F13.140392261510897
sg11
I764
sg12
I1
sg13
g14
sg15
I3
sg16
I00
sa(dp781
g8
I00
sg9
F0.016702218466434715
sg10
F13.156822210780319
sg11
I765
sg12
I1
sg13
g14
sg15
I3
sg16
I00
sa(dp782
g8
I00
sg9
F0.016703929058621725
sg10
F13.17351473589315
sg11
I766
sg12
I1
sg13
g14
sg15
I3
sg16
I00
sa(dp783
g8
I00
sg9
F0.016656887783483398
sg10
F13.190177895846773
sg11
I767
sg12
I1
sg13
g14
sg15
I3
sg16
I00
sa(dp784
g8
I00
sg9
F0.016507781197105942
sg10
F13.206691949213564
sg11
I768
sg12
I1
sg13
g14
sg15
I3
sg16
I00
sa(dp785
g8
I00
sg9
F0.016749259741118294
sg10
F13.223423532839661
sg11
I769
sg12
I1
sg13
g14
sg15
I3
sg16
I00
sa(dp786
g8
I00
sg9
F0.016674278800110187
sg10
F13.240160533339804
sg11
I770
sg12
I1
sg13
g14
sg15
I3
sg16
I00
sa(dp787
g8
I00
sg9
F0.016679695674611139
sg10
F13.256786345371893
sg11
I771
sg12
I1
sg13
g14
sg15
I3
sg16
I00
sa(dp788
g8
I00
sg9
F0.016648334824367339
sg10
F13.273428122927726
sg11
I772
sg12
I1
sg13
g14
sg15
I3
sg16
I00
sa(dp789
g8
I00
sg9
F0.016687678436028364
sg10
F13.290140034747765
sg11
I773
sg12
I1
sg13
g14
sg15
I3
sg16
I00
sa(dp790
g8
I00
sg9
F0.016702503565284132
sg10
F13.306823436704235
sg11
I774
sg12
I1
sg13
g14
sg15
I3
sg16
I00
sa(dp791
g8
I00
sg9
F0.016628663018309453
sg10
F13.323450104032418
sg11
I775
sg12
I1
sg13
g14
sg15
I3
sg16
I00
sa(dp792
g8
I00
sg9
F0.0166645854469607
sg10
F13.340115544775017
sg11
I776
sg12
I1
sg13
g14
sg15
I3
sg16
I00
sa(dp793
g8
I00
sg9
F0.016682831759226247
sg10
F13.356804648704383
sg11
I777
sg12
I1
sg13
g14
sg15
I3
sg16
I00
sa(dp794
g8
I00
sg9
F0.016620965355286899
sg10
F13.373423618369088
sg11
I778
sg12
I1
sg13
g14
sg15
I3
sg16
I00
sa(dp795
g8
I00
sg9
F0.016651470909437194
sg10
F13.390075374377375
sg11
I779
sg12
I1
sg13
g14
sg15
I3
sg16
I00
sa(dp796
g8
I00
sg9
F0.01669908238136486
sg10
F13.406839174148899
sg11
I780
sg12
I1
sg13
g14
sg15
I3
sg16
I00
sa(dp797
g8
I00
sg9
F0.016794590424524358
sg10
F13.423575604451798
sg11
I781
sg12
I1
sg13
g14
sg15
I3
sg16
I00
sa(dp798
g8
I00
sg9
F0.016538571849650907
sg10
F13.440099921369892
sg11
I782
sg12
I1
sg13
g14
sg15
I3
sg16
I00
sa(dp799
g8
I00
sg9
F0.016660023868553253
sg10
F13.456773629972758
sg11
I783
sg12
I1
sg13
g14
sg15
I3
sg16
I00
sa(dp800
g8
I00
sg9
F0.016650900712193106
sg10
F13.473411131049033
sg11
I784
sg12
I1
sg13
g14
sg15
I3
sg16
I00
sa(dp801
g8
I00
sg9
F0.016669717222157487
sg10
F13.490082273764074
sg11
I785
sg12
I1
sg13
g14
sg15
I3
sg16
I00
sa(dp802
g8
I00
sg9
F0.016668006629970478
sg10
F13.506757692959127
sg11
I786
sg12
I1
sg13
g14
sg15
I3
sg16
I00
sa(dp803
g8
I00
sg9
F0.016473854459491122
sg10
F13.523224990149629
sg11
I787
sg12
I1
sg13
g14
sg15
I3
sg16
I00
sa(dp804
g8
I00
sg9
F0.016714762806714134
sg10
F13.539880737538624
sg11
I788
sg12
I1
sg13
g14
sg15
I3
sg16
I00
sa(dp805
g8
I00
sg9
F0.016799722199721145
sg10
F13.556740330452158
sg11
I789
sg12
I1
sg13
g14
sg15
I3
sg16
I00
sa(dp806
g8
I00
sg9
F0.016654321895657631
sg10
F13.573460510132463
sg11
I790
sg12
I1
sg13
g14
sg15
I3
sg16
I00
sa(dp807
g8
I00
sg9
F0.016673993701715517
sg10
F13.590070356641263
sg11
I791
sg12
I1
sg13
g14
sg15
I3
sg16
I00
sa(dp808
g8
I00
sg9
F0.01656309033251091
sg10
F13.606634587368262
sg11
I792
sg12
I1
sg13
g14
sg15
I3
sg16
I00
sa(dp809
g8
I00
sg9
F0.016777199407442822
sg10
F13.623407225197752
sg11
I793
sg12
I1
sg13
g14
sg15
I3
sg16
I00
sa(dp810
g8
I00
sg9
F0.016634935188449163
sg10
F13.640040734892864
sg11
I794
sg12
I1
sg13
g14
sg15
I3
sg16
I00
sa(dp811
g8
I00
sg9
F0.016652896402774786
sg10
F13.656700758761417
sg11
I795
sg12
I1
sg13
g14
sg15
I3
sg16
I00
sa(dp812
g8
I00
sg9
F0.016671998011133837
sg10
F13.673371901476912
sg11
I796
sg12
I1
sg13
g14
sg15
I3
sg16
I00
sa(dp813
g8
I00
sg9
F0.016679695674156392
sg10
F13.690076685831173
sg11
I797
sg12
I1
sg13
g14
sg15
I3
sg16
I00
sa(dp814
g8
I00
sg9
F0.016570502897138795
sg10
F13.706616683173706
sg11
I798
sg12
I1
sg13
g14
sg15
I3
sg16
I00
sa(dp815
g8
I00
sg9
F0.016738711091875302
sg10
F13.723355964462826
sg11
I799
sg12
I1
sg13
g14
sg15
I3
sg16
I00
sa(dp816
g8
I00
sg9
F0.016650615613343689
sg10
F13.740076144143586
sg11
I800
sg12
I1
sg13
g14
sg15
I3
sg16
I00
sa(dp817
g8
I00
sg9
F0.016656032487389894
sg10
F13.756661472169526
sg11
I801
sg12
I1
sg13
g14
sg15
I3
sg16
I00
sa(dp818
g8
I00
sg9
F0.016679410575761722
sg10
F13.773341452942532
sg11
I802
sg12
I1
sg13
g14
sg15
I3
sg16
I00
sa(dp819
g8
I00
sg9
F0.016645768936541572
sg10
F13.789992923851969
sg11
I803
sg12
I1
sg13
g14
sg15
I3
sg16
I00
sa(dp820
g8
I00
sg9
F0.016660308967402671
sg10
F13.806648386142115
sg11
I804
sg12
I1
sg13
g14
sg15
I3
sg16
I00
sa(dp821
g8
I00
sg9
F0.01666743643272639
sg10
F13.823314397081958
sg11
I805
sg12
I1
sg13
g14
sg15
I3
sg16
I00
sa(dp822
g8
I00
sg9
F0.016532014581116528
sg10
F13.839846981860319
sg11
I806
sg12
I1
sg13
g14
sg15
I3
sg16
I00
sa(dp823
g8
I00
sg9
F0.016786322564257716
sg10
F13.856642142482087
sg11
I807
sg12
I1
sg13
g14
sg15
I3
sg16
I00
sa(dp824
g8
I00
sg9
F0.016662019558680186
sg10
F13.873295323983257
sg11
I808
sg12
I1
sg13
g14
sg15
I3
sg16
I00
sa(dp825
g8
I00
sg9
F0.016660308967402671
sg10
F13.889960194528612
sg11
I809
sg12
I1
sg13
g14
sg15
I3
sg16
I00
sa(dp826
g8
I00
sg9
F0.016656317585784564
sg10
F13.906678663617186
sg11
I810
sg12
I1
sg13
g14
sg15
I3
sg16
I00
sa(dp827
g8
I00
sg9
F0.016635790484542667
sg10
F13.923243749639823
sg11
I811
sg12
I1
sg13
g14
sg15
I3
sg16
I00
sa(dp828
g8
I00
sg9
F0.016631799103834055
sg10
F13.939884956998412
sg11
I812
sg12
I1
sg13
g14
sg15
I3
sg16
I00
sa(dp829
g8
I00
sg9
F0.016643773245959892
sg10
F13.956527304751489
sg11
I813
sg12
I1
sg13
g14
sg15
I3
sg16
I00
sa(dp830
g8
I00
sg9
F0.016713622412225959
sg10
F13.973353826223047
sg11
I814
sg12
I1
sg13
g14
sg15
I3
sg16
I00
sa(dp831
g8
I00
sg9
F0.016660023868098506
sg10
F13.989898955341687
sg11
I815
sg12
I1
sg13
g14
sg15
I3
sg16
I00
sa(dp832
g8
I00
sg9
F0.016670572518250992
sg10
F14.006566391774413
sg11
I816
sg12
I1
sg13
g14
sg15
I8
sg16
I01
sa(dp833
g8
I00
sg9
F0.016674848997354275
sg10
F14.023246087449024
sg11
I817
sg12
I1
sg13
g14
sg15
I8
sg16
I01
sa(dp834
g8
I00
sg9
F0.016652041106681281
sg10
F14.039898128555706
sg11
I818
sg12
I1
sg13
g14
sg15
I8
sg16
I01
sa(dp835
g8
I00
sg9
F0.016646909331029747
sg10
F14.056544182590642
sg11
I819
sg12
I1
sg13
g14
sg15
I8
sg16
I01
sa(dp836
g8
I00
sg9
F0.01666258975637902
sg10
F14.073276621512832
sg11
I820
sg12
I1
sg13
g14
sg15
I8
sg16
I01
sa(dp837
g8
I00
sg9
F0.016679695674156392
sg10
F14.089887038218421
sg11
I821
sg12
I1
sg13
g14
sg15
I8
sg16
I01
sa(dp838
g8
I00
sg9
F0.016630088511647045
sg10
F14.106514845941092
sg11
I822
sg12
I1
sg13
g14
sg15
I8
sg16
I01
sa(dp839
g8
I00
sg9
F0.016650330514949019
sg10
F14.123160614878088
sg11
I823
sg12
I1
sg13
g14
sg15
I8
sg16
I01
sa(dp840
g8
I00
sg9
F0.016680265871855227
sg10
F14.139854565483802
sg11
I824
sg12
I1
sg13
g14
sg15
I8
sg16
I01
sa(dp841
g8
I00
sg9
F0.016650330514494271
sg10
F14.156500049321949
sg11
I825
sg12
I1
sg13
g14
sg15
I8
sg16
I01
sa(dp842
g8
I00
sg9
F0.016681121167493984
sg10
F14.17318573206785
sg11
I826
sg12
I1
sg13
g14
sg15
I8
sg16
I01
sa(dp843
g8
I00
sg9
F0.016647479528728581
sg10
F14.18983577748395
sg11
I827
sg12
I1
sg13
g14
sg15
I8
sg16
I01
sa(dp844
g8
I00
sg9
F0.016640922259739455
sg10
F14.206465865995597
sg11
I828
sg12
I1
sg13
g14
sg15
I8
sg16
I01
sa(dp845
g8
I00
sg9
F0.016693950606168073
sg10
F14.223162097390741
sg11
I829
sg12
I1
sg13
g14
sg15
I8
sg16
I01
sa(dp846
g8
I00
sg9
F0.016588464111009671
sg10
F14.239837231486945
sg11
I830
sg12
I1
sg13
g14
sg15
I8
sg16
I01
sa(dp847
g8
I00
sg9
F0.016671142715040332
sg10
F14.256427406189687
sg11
I831
sg12
I1
sg13
g14
sg15
I8
sg16
I01
sa(dp848
g8
I00
sg9
F0.016681406266343402
sg10
F14.273100259496914
sg11
I832
sg12
I1
sg13
g14
sg15
I8
sg16
I01
sa(dp849
g8
I00
sg9
F0.016658313276366243
sg10
F14.2897619939572
sg11
I833
sg12
I1
sg13
g14
sg15
I8
sg16
I01
sa(dp850
g8
I00
sg9
F0.016649475219310261
sg10
F14.306407192696497
sg11
I834
sg12
I1
sg13
g14
sg15
I8
sg16
I01
sa(dp851
g8
I00
sg9
F0.016668291728819895
sg10
F14.323077195017049
sg11
I835
sg12
I1
sg13
g14
sg15
I8
sg16
I01
sa(dp852
g8
I00
sg9
F0.016670002320552157
sg10
F14.339748052633695
sg11
I836
sg12
I1
sg13
g14
sg15
I8
sg16
I01
sa(dp853
g8
I00
sg9
F0.016654321895657631
sg10
F14.356396672556912
sg11
I837
sg12
I1
sg13
g14
sg15
I8
sg16
I01
sa(dp854
g8
I00
sg9
F0.0166691470249134
sg10
F14.37306581958137
sg11
I838
sg12
I1
sg13
g14
sg15
I8
sg16
I01
sa(dp855
g8
I00
sg9
F0.016654321895657631
sg10
F14.389730690126726
sg11
I839
sg12
I1
sg13
g14
sg15
I8
sg16
I01
sa(dp856
g8
I00
sg9
F0.016614693185601936
sg10
F14.406405254025685
sg11
I840
sg12
I1
sg13
g14
sg15
I8
sg16
I01
sa(dp857
g8
I00
sg9
F0.016772922927884792
sg10
F14.423131420777736
sg11
I841
sg12
I1
sg13
g14
sg15
I8
sg16
I01
sa(dp858
g8
I00
sg9
F0.016654036797262961
sg10
F14.439773483431964
sg11
I842
sg12
I1
sg13
g14
sg15
I8
sg16
I01
sa(dp859
g8
I00
sg9
F0.016542278131964849
sg10
F14.456304927815836
sg11
I843
sg12
I1
sg13
g14
sg15
I8
sg16
I01
sa(dp860
g8
I00
sg9
F0.016783756676431949
sg10
F14.473093246070221
sg11
I844
sg12
I1
sg13
g14
sg15
I8
sg16
I01
sa(dp861
g8
I00
sg9
F0.016658883473610331
sg10
F14.48975897191167
sg11
I845
sg12
I1
sg13
g14
sg15
I8
sg16
I01
sa(dp862
g8
I00
sg9
F0.016618969665159966
sg10
F14.506375090590154
sg11
I846
sg12
I1
sg13
g14
sg15
I8
sg16
I01
sa(dp863
g8
I00
sg9
F0.016782901380338444
sg10
F14.523151149603109
sg11
I847
sg12
I1
sg13
g14
sg15
I8
sg16
I01
sa(dp864
g8
I00
sg9
F0.016555677767883026
sg10
F14.539712529343888
sg11
I848
sg12
I1
sg13
g14
sg15
I8
sg16
I01
sa(dp865
g8
I00
sg9
F0.016686252942690771
sg10
F14.556398497188184
sg11
I849
sg12
I1
sg13
g14
sg15
I8
sg16
I01
sa(dp866
g8
I00
sg9
F0.016657457980727486
sg10
F14.573131791406013
sg11
I850
sg12
I1
sg13
g14
sg15
I8
sg16
I01
sa(dp867
g8
I00
sg9
F0.016663445052472525
sg10
F14.58972510219337
sg11
I851
sg12
I1
sg13
g14
sg15
I8
sg16
I01
sa(dp868
g8
I00
sg9
F0.01666943212330807
sg10
F14.606399666092329
sg11
I852
sg12
I1
sg13
g14
sg15
I8
sg16
I01
sa(dp869
g8
I00
sg9
F0.016649760317704931
sg10
F14.623034031083535
sg11
I853
sg12
I1
sg13
g14
sg15
I8
sg16
I01
sa(dp870
g8
I00
sg9
F0.016666296038238215
sg10
F14.639699756924983
sg11
I854
sg12
I1
sg13
g14
sg15
I8
sg16
I01
sa(dp871
g8
I00
sg9
F0.016637215977425512
sg10
F14.656337258001258
sg11
I855
sg12
I1
sg13
g14
sg15
I8
sg16
I01
sa(dp872
g8
I00
sg9
F0.016648049725972669
sg10
F14.672984737529532
sg11
I856
sg12
I1
sg13
g14
sg15
I8
sg16
I01
sa(dp873
g8
I00
sg9
F0.016691954915586393
sg10
F14.689674981853386
sg11
I857
sg12
I1
sg13
g14
sg15
I8
sg16
I01
sa(dp874
g8
I00
sg9
F0.016656887783483398
sg10
F14.706331299439626
sg11
I858
sg12
I1
sg13
g14
sg15
I8
sg16
I01
sa(dp875
g8
I00
sg9
F0.01666686623593705
sg10
F14.723003297450759
sg11
I859
sg12
I1
sg13
g14
sg15
I8
sg16
I01
sa(dp876
g8
I00
sg9
F0.016662589755924273
sg10
F14.73973260028788
sg11
I860
sg12
I1
sg13
g14
sg15
I8
sg16
I01
sa(dp877
g8
I00
sg9
F0.016579911151893612
sg10
F14.756234964610485
sg11
I861
sg12
I1
sg13
g14
sg15
I8
sg16
I01
sa(dp878
g8
I00
sg9
F0.016734149513922603
sg10
F14.772989356127709
sg11
I862
sg12
I1
sg13
g14
sg15
I8
sg16
I01
sa(dp879
g8
I00
sg9
F0.01667142781388975
sg10
F14.78965736275768
sg11
I863
sg12
I1
sg13
g14
sg15
I8
sg16
I01
sa(dp880
g8
I00
sg9
F0.01662894811715887
sg10
F14.806295148932804
sg11
I864
sg12
I1
sg13
g14
sg15
I8
sg16
I01
sa(dp881
g8
I00
sg9
F0.01663978186525128
sg10
F14.822960019477705
sg11
I865
sg12
I1
sg13
g14
sg15
I8
sg16
I01
sa(dp882
g8
I00
sg9
F0.016699367480214278
sg10
F14.839621183740746
sg11
I866
sg12
I1
sg13
g14
sg15
I8
sg16
I01
sa(dp883
g8
I00
sg9
F0.01667142781388975
sg10
F14.856286909582195
sg11
I867
sg12
I1
sg13
g14
sg15
I8
sg16
I01
sa(dp884
g8
I00
sg9
F0.016653466599564126
sg10
F14.872944082464073
sg11
I868
sg12
I1
sg13
g14
sg15
I8
sg16
I01
sa(dp885
g8
I00
sg9
F0.016651185811042524
sg10
F14.889592132190046
sg11
I869
sg12
I1
sg13
g14
sg15
I8
sg16
I01
sa(dp886
g8
I00
sg9
F0.016685112548202596
sg10
F14.906345098213478
sg11
I870
sg12
I1
sg13
g14
sg15
I8
sg16
I01
sa(dp887
g8
I00
sg9
F0.016652041106681281
sg10
F14.922931281535512
sg11
I871
sg12
I1
sg13
g14
sg15
I8
sg16
I01
sa(dp888
g8
I00
sg9
F0.016643203049170552
sg10
F14.939577335570903
sg11
I872
sg12
I1
sg13
g14
sg15
I8
sg16
I01
sa(dp889
g8
I00
sg9
F0.016691669816736976
sg10
F14.956263873612443
sg11
I873
sg12
I1
sg13
g14
sg15
I8
sg16
I01
sa(dp890
g8
I00
sg9
F0.016623246144717996
sg10
F14.972889115447288
sg11
I874
sg12
I1
sg13
g14
sg15
I8
sg16
I01
sa(dp891
g8
I00
sg9
F0.016675704293447779
sg10
F14.989565960135224
sg11
I875
sg12
I1
sg13
g14
sg15
I8
sg16
I01
sa(dp892
g8
I00
sg9
F0.016671142715040332
sg10
F15.006251357782276
sg11
I876
sg12
I1
sg13
g14
sg15
I8
sg16
I00
sa(dp893
g8
I00
sg9
F0.016661734460285516
sg10
F15.022897696916061
sg11
I877
sg12
I1
sg13
g14
sg15
I8
sg16
I00
sa(dp894
g8
I00
sg9
F0.016599868056346168
sg10
F15.039494713986187
sg11
I878
sg12
I1
sg13
g14
sg15
I8
sg16
I00
sa(dp895
g8
I00
sg9
F0.016600723352439672
sg10
F15.056085458886173
sg11
I879
sg12
I1
sg13
g14
sg15
I8
sg16
I00
sa(dp896
g8
I00
sg9
F0.016659168572459748
sg10
F15.072690743816565
sg11
I880
sg12
I1
sg13
g14
sg15
I8
sg16
I00
sa(dp897
g8
I00
sg9
F0.016573068784509815
sg10
F15.089210784255101
sg11
I881
sg12
I1
sg13
g14
sg15
I8
sg16
I00
sa(dp898
g8
I00
sg9
F0.01663550538569325
sg10
F15.105804950338552
sg11
I882
sg12
I1
sg13
g14
sg15
I8
sg16
I00
sa(dp899
g8
I00
sg9
F0.0168342191350348
sg10
F15.122806522372684
sg11
I883
sg12
I1
sg13
g14
sg15
I8
sg16
I00
sa(dp900
g8
I00
sg9
F0.016692810211225151
sg10
F15.139492205118131
sg11
I884
sg12
I1
sg13
g14
sg15
I8
sg16
I00
sa(dp901
g8
I00
sg9
F0.016681121167493984
sg10
F15.156173611384474
sg11
I885
sg12
I1
sg13
g14
sg15
I8
sg16
I00
sa(dp902
g8
I00
sg9
F0.016637786175124347
sg10
F15.172822231307237
sg11
I886
sg12
I1
sg13
g14
sg15
I8
sg16
I00
sa(dp903
g8
I00
sg9
F0.016670002320552157
sg10
F15.189481114781302
sg11
I887
sg12
I1
sg13
g14
sg15
I8
sg16
I00
sa(dp904
g8
I00
sg9
F0.016611842198926752
sg10
F15.206108067207879
sg11
I888
sg12
I1
sg13
g14
sg15
I8
sg16
I00
sa(dp905
g8
I00
sg9
F0.016732153823340923
sg10
F15.222829957480371
sg11
I889
sg12
I1
sg13
g14
sg15
I8
sg16
I00
sa(dp906
g8
I00
sg9
F0.016657743079576903
sg10
F15.239553273245747
sg11
I890
sg12
I1
sg13
g14
sg15
I8
sg16
I00
sa(dp907
g8
I00
sg9
F0.016656032487389894
sg10
F15.256136890679954
sg11
I891
sg12
I1
sg13
g14
sg15
I8
sg16
I00
sa(dp908
g8
I00
sg9
F0.016665725841448875
sg10
F15.272809458888332
sg11
I892
sg12
I1
sg13
g14
sg15
I8
sg16
I00
sa(dp909
g8
I00
sg9
F0.016657172881878068
sg10
F15.289461785093863
sg11
I893
sg12
I1
sg13
g14
sg15
I8
sg16
I00
sa(dp910
g8
I00
sg9
F0.016682261561982159
sg10
F15.306141765866869
sg11
I894
sg12
I1
sg13
g14
sg15
I8
sg16
I00
sa(dp911
g8
I00
sg9
F0.016643488147565222
sg10
F15.322788675197899
sg11
I895
sg12
I1
sg13
g14
sg15
I8
sg16
I00
sa(dp912
g8
I00
sg9
F0.016672283109983255
sg10
F15.339457822222812
sg11
I896
sg12
I1
sg13
g14
sg15
I8
sg16
I00
sa(dp913
g8
I00
sg9
F0.016619824960798724
sg10
F15.356205656471047
sg11
I897
sg12
I1
sg13
g14
sg15
I8
sg16
I00
sa(dp914
g8
I00
sg9
F0.016635790484542667
sg10
F15.372708876089746
sg11
I898
sg12
I1
sg13
g14
sg15
I8
sg16
I00
sa(dp915
g8
I00
sg9
F0.016716188299596979
sg10
F15.389431906756727
sg11
I899
sg12
I1
sg13
g14
sg15
I8
sg16
I00
sa(dp916
g8
I00
sg9
F0.016664585446505953
sg10
F15.406165200974556
sg11
I900
sg12
I1
sg13
g14
sg15
I8
sg16
I00
sa(dp917
g8
I00
sg9
F0.01666258975637902
sg10
F15.422778753765215
sg11
I901
sg12
I1
sg13
g14
sg15
I8
sg16
I00
sa(dp918
g8
I00
sg9
F0.016666581137087633
sg10
F15.439424522702211
sg11
I902
sg12
I1
sg13
g14
sg15
I8
sg16
I00
sa(dp919
g8
I00
sg9
F0.016656317586239311
sg10
F15.456090533642055
sg11
I903
sg12
I1
sg13
g14
sg15
I8
sg16
I00
sa(dp920
g8
I00
sg9
F0.016661449361436098
sg10
F15.472744570438863
sg11
I904
sg12
I1
sg13
g14
sg15
I8
sg16
I00
sa(dp921
g8
I00
sg9
F0.016662304657529603
sg10
F15.489405734701904
sg11
I905
sg12
I1
sg13
g14
sg15
I8
sg16
I00
sa(dp922
g8
I00
sg9
F0.016652611303925369
sg10
F15.506062907584237
sg11
I906
sg12
I1
sg13
g14
sg15
I8
sg16
I00
sa(dp923
g8
I00
sg9
F0.016668291728819895
sg10
F15.522728348326837
sg11
I907
sg12
I1
sg13
g14
sg15
I8
sg16
I00
sa(dp924
g8
I00
sg9
F0.01666686623593705
sg10
F15.539390938082761
sg11
I908
sg12
I1
sg13
g14
sg15
I8
sg16
I00
sa(dp925
g8
I00
sg9
F0.016648049725517922
sg10
F15.556045259978418
sg11
I909
sg12
I1
sg13
g14
sg15
I8
sg16
I00
sa(dp926
g8
I00
sg9
F0.016658028177971573
sg10
F15.572766865152516
sg11
I910
sg12
I1
sg13
g14
sg15
I8
sg16
I00
sa(dp927
g8
I00
sg9
F0.016668576827669312
sg10
F15.589367588504501
sg11
I911
sg12
I1
sg13
g14
sg15
I8
sg16
I00
sa(dp928
g8
I00
sg9
F0.016656887783483398
sg10
F15.606028182570299
sg11
I912
sg12
I1
sg13
g14
sg15
I8
sg16
I00
sa(dp929
g8
I00
sg9
F0.016632369300623395
sg10
F15.622691627622316
sg11
I913
sg12
I1
sg13
g14
sg15
I8
sg16
I00
sa(dp930
g8
I00
sg9
F0.016650900712193106
sg10
F15.639262700716699
sg11
I914
sg12
I1
sg13
g14
sg15
I8
sg16
I00
sa(dp931
g8
I00
sg9
F0.016547409907616384
sg10
F15.655741116754143
sg11
I915
sg12
I1
sg13
g14
sg15
I8
sg16
I00
sa(dp932
g8
I00
sg9
F0.016755817010107421
sg10
F15.672611828514164
sg11
I916
sg12
I1
sg13
g14
sg15
I8
sg16
I00
sa(dp933
g8
I00
sg9
F0.016697086690783181
sg10
F15.689309485402646
sg11
I917
sg12
I1
sg13
g14
sg15
I8
sg16
I00
sa(dp934
g8
I00
sg9
F0.016683401956470334
sg10
F15.705991461866233
sg11
I918
sg12
I1
sg13
g14
sg15
I8
sg16
I00
sa(dp935
g8
I00
sg9
F0.016660308967402671
sg10
F15.722651200635937
sg11
I919
sg12
I1
sg13
g14
sg15
I8
sg16
I00
sa(dp936
g8
I00
sg9
F0.016628092821065366
sg10
F15.73934857242557
sg11
I920
sg12
I1
sg13
g14
sg15
I8
sg16
I00
sa(dp937
g8
I00
sg9
F0.016697941986876685
sg10
F15.755985218205751
sg11
I921
sg12
I1
sg13
g14
sg15
I8
sg16
I00
sa(dp938
g8
I00
sg9
F0.016651185811042524
sg10
F15.772628421254922
sg11
I922
sg12
I1
sg13
g14
sg15
I8
sg16
I00
sa(dp939
g8
I00
sg9
F0.016646339133785659
sg10
F15.789274475290313
sg11
I923
sg12
I1
sg13
g14
sg15
I8
sg16
I00
sa(dp940
g8
I00
sg9
F0.016691669817191723
sg10
F15.805970991783852
sg11
I924
sg12
I1
sg13
g14
sg15
I8
sg16
I00
sa(dp941
g8
I00
sg9
F0.016648049725517922
sg10
F15.82261847131258
sg11
I925
sg12
I1
sg13
g14
sg15
I8
sg16
I00
sa(dp942
g8
I00
sg9
F0.016648334824367339
sg10
F15.839261959460146
sg11
I926
sg12
I1
sg13
g14
sg15
I8
sg16
I00
sa(dp943
g8
I00
sg9
F0.016681691364738072
sg10
F15.855950208093418
sg11
I927
sg12
I1
sg13
g14
sg15
I8
sg16
I00
sa(dp944
g8
I00
sg9
F0.016598727661857993
sg10
F15.872544659275718
sg11
I928
sg12
I1
sg13
g14
sg15
I8
sg16
I00
sa(dp945
g8
I00
sg9
F0.016679125477367052
sg10
F15.889216087089608
sg11
I929
sg12
I1
sg13
g14
sg15
I8
sg16
I00
sa(dp946
g8
I00
sg9
F0.016672853306772595
sg10
F15.906014098697597
sg11
I930
sg12
I1
sg13
g14
sg15
I8
sg16
I00
sa(dp947
g8
I00
sg9
F0.01662894811715887
sg10
F15.922540981503516
sg11
I931
sg12
I1
sg13
g14
sg15
I8
sg16
I00
sa(dp948
g8
I00
sg9
F0.016713337313376542
sg10
F15.939233221517497
sg11
I932
sg12
I1
sg13
g14
sg15
I8
sg16
I00
sa(dp949
g8
I00
sg9
F0.016609561409950402
sg10
F15.95586302493075
sg11
I933
sg12
I1
sg13
g14
sg15
I8
sg16
I00
sa(dp950
g8
I00
sg9
F0.016682831759226247
sg10
F15.972529606067837
sg11
I934
sg12
I1
sg13
g14
sg15
I8
sg16
I00
sa(dp951
g8
I00
sg9
F0.016673708603320847
sg10
F15.989214433517645
sg11
I935
sg12
I1
sg13
g14
sg15
I8
sg16
I00
sa(dp952
g8
I00
sg9
F0.016612127297321422
sg10
F16.005831977689468
sg11
I936
sg12
I1
sg13
g14
sg15
I0
sg16
I01
sa(dp953
g8
I00
sg9
F0.016658028177971573
sg10
F16.022473185047602
sg11
I937
sg12
I1
sg13
g14
sg15
I0
sg16
I01
sa(dp954
g8
I00
sg9
F0.016706494946447492
sg10
F16.039181675684176
sg11
I938
sg12
I1
sg13
g14
sg15
I0
sg16
I01
sa(dp955
g8
I00
sg9
F0.016691099619492888
sg10
F16.055875911389194
sg11
I939
sg12
I1
sg13
g14
sg15
I0
sg16
I01
sa(dp956
g8
I00
sg9
F0.01660357433866011
sg10
F16.07254334782192
sg11
I940
sg12
I1
sg13
g14
sg15
I0
sg16
I01
sa(dp957
g8
I00
sg9
F0.0166691470249134
sg10
F16.089155760218546
sg11
I941
sg12
I1
sg13
g14
sg15
I0
sg16
I01
sa(dp958
g8
I00
sg9
F0.016654892092901719
sg10
F16.105803524845669
sg11
I942
sg12
I1
sg13
g14
sg15
I0
sg16
I01
sa(dp959
g8
I00
sg9
F0.016690529422248801
sg10
F16.12248977778836
sg11
I943
sg12
I1
sg13
g14
sg15
I0
sg16
I01
sa(dp960
g8
I00
sg9
F0.016690814521098218
sg10
F16.13918258800004
sg11
I944
sg12
I1
sg13
g14
sg15
I0
sg16
I01
sa(dp961
g8
I00
sg9
F0.016658883474065078
sg10
F16.155850024432766
sg11
I945
sg12
I1
sg13
g14
sg15
I0
sg16
I01
sa(dp962
g8
I00
sg9
F0.016652611303925369
sg10
F16.172493797679181
sg11
I946
sg12
I1
sg13
g14
sg15
I0
sg16
I01
sa(dp963
g8
I00
sg9
F0.016711626721644279
sg10
F16.189218824036743
sg11
I947
sg12
I1
sg13
g14
sg15
I0
sg16
I01
sa(dp964
g8
I00
sg9
F0.01650179412581565
sg10
F16.205703797342721
sg11
I948
sg12
I1
sg13
g14
sg15
I0
sg16
I01
sa(dp965
g8
I00
sg9
F0.016751825628944061
sg10
F16.222462750437899
sg11
I949
sg12
I1
sg13
g14
sg15
I0
sg16
I01
sa(dp966
g8
I00
sg9
F0.016693095310074568
sg10
F16.239233107477958
sg11
I950
sg12
I1
sg13
g14
sg15
I0
sg16
I01
sa(dp967
g8
I00
sg9
F0.016651470909437194
sg10
F16.255815299419282
sg11
I951
sg12
I1
sg13
g14
sg15
I0
sg16
I01
sa(dp968
g8
I00
sg9
F0.016655177191751136
sg10
F16.272456221679022
sg11
I952
sg12
I1
sg13
g14
sg15
I0
sg16
I01
sa(dp969
g8
I00
sg9
F0.016557673458009958
sg10
F16.289035277534822
sg11
I953
sg12
I1
sg13
g14
sg15
I0
sg16
I01
sa(dp970
g8
I00
sg9
F0.016704499255865812
sg10
F16.305719534787386
sg11
I954
sg12
I1
sg13
g14
sg15
I0
sg16
I01
sa(dp971
g8
I00
sg9
F0.016676559589086537
sg10
F16.32239751986981
sg11
I955
sg12
I1
sg13
g14
sg15
I0
sg16
I01
sa(dp972
g8
I00
sg9
F0.016646624232635077
sg10
F16.339060109626189
sg11
I956
sg12
I1
sg13
g14
sg15
I0
sg16
I01
sa(dp973
g8
I00
sg9
F0.016663730150867195
sg10
F16.35571528681794
sg11
I957
sg12
I1
sg13
g14
sg15
I0
sg16
I01
sa(dp974
g8
I00
sg9
F0.016673138405622012
sg10
F16.372393271900364
sg11
I958
sg12
I1
sg13
g14
sg15
I0
sg16
I01
sa(dp975
g8
I00
sg9
F0.016642917950321134
sg10
F16.38906384441816
sg11
I959
sg12
I1
sg13
g14
sg15
I0
sg16
I01
sa(dp976
g8
I00
sg9
F0.016666296038692963
sg10
F16.405770054265759
sg11
I960
sg12
I1
sg13
g14
sg15
I0
sg16
I01
sa(dp977
g8
I00
sg9
F0.01660813591661281
sg10
F16.422316323778432
sg11
I961
sg12
I1
sg13
g14
sg15
I0
sg16
I01
sa(dp978
g8
I00
sg9
F0.01677548881571056
sg10
F16.439088391410678
sg11
I962
sg12
I1
sg13
g14
sg15
I0
sg16
I01
sa(dp979
g8
I00
sg9
F0.016648619923216756
sg10
F16.455741287813453
sg11
I963
sg12
I1
sg13
g14
sg15
I0
sg16
I01
sa(dp980
g8
I00
sg9
F0.01683450423342947
sg10
F16.472553269254604
sg11
I964
sg12
I1
sg13
g14
sg15
I0
sg16
I01
sa(dp981
g8
I00
sg9
F0.01646159521806112
sg10
F16.489031115094804
sg11
I965
sg12
I1
sg13
g14
sg15
I0
sg16
I01
sa(dp982
g8
I00
sg9
F0.016704214157016395
sg10
F16.505721929615902
sg11
I966
sg12
I1
sg13
g14
sg15
I0
sg16
I01
sa(dp983
g8
I00
sg9
F0.016657743079122156
sg10
F16.522381953484455
sg11
I967
sg12
I1
sg13
g14
sg15
I0
sg16
I01
sa(dp984
g8
I00
sg9
F0.01666258975637902
sg10
F16.539062504454705
sg11
I968
sg12
I1
sg13
g14
sg15
I0
sg16
I01
sa(dp985
g8
I00
sg9
F0.016656887783483398
sg10
F16.555698294939248
sg11
I969
sg12
I1
sg13
g14
sg15
I0
sg16
I01
sa(dp986
g8
I00
sg9
F0.016660879164192011
sg10
F16.572426742480275
sg11
I970
sg12
I1
sg13
g14
sg15
I0
sg16
I01
sa(dp987
g8
I00
sg9
F0.016661449361890845
sg10
F16.58903658898862
sg11
I971
sg12
I1
sg13
g14
sg15
I0
sg16
I01
sa(dp988
g8
I00
sg9
F0.01652716790431441
sg10
F16.605492197135391
sg11
I972
sg12
I1
sg13
g14
sg15
I0
sg16
I01
sa(dp989
g8
I00
sg9
F0.016804283778128593
sg10
F16.622351504950075
sg11
I973
sg12
I1
sg13
g14
sg15
I0
sg16
I01
sa(dp990
g8
I00
sg9
F0.016651185810587776
sg10
F16.639385863326879
sg11
I974
sg12
I1
sg13
g14
sg15
I0
sg16
I01
sasS'frameBit'
p991
I4
sS'rewarded'
p992
I00
sS'lickData'
p993
(cnumpy.core.multiarray
_reconstruct
p994
(cnumpy
ndarray
p995
(I0
tS'b'
tRp996
(I1
(L1L
tcnumpy
dtype
p997
(S'i8'
I0
I1
tRp998
(I3
S'<'
NNNI-1
I-1
I0
tbI00
S'\xce\x03\x00\x00\x00\x00\x00\x00'
tbg994
(g995
(I0
tS'b'
tRp999
(I1
(L1L
tg998
I00
S'\x00\x00\x00\x00\x00\x00\x00\x00'
tbtp1000
sS'full_traceback_on'
p1001
I00
sS'rewardvol'
p1002
F0.0080000000000000002
sS'monitor'
p1003
(dp1004
S'sizepix'
p1005
(lp1006
I1024
aI768
asS'name'
p1007
S'testMonitor'
p1008
sS'gammagrid'
p1009
(lp1010
(lp1011
F0
aF1
aF1
aFnan
aFnan
aFnan
aa(lp1012
F0
aF1
aF1
aFnan
aFnan
aFnan
aa(lp1013
F0
aF1
aF1
aFnan
aFnan
aFnan
aa(lp1014
F0
aF1
aF1
aFnan
aFnan
aFnan
aasS'calibrationdate'
p1015
S'time.struct_time(tm_year=2016, tm_mon=6, tm_mday=13, tm_hour=14, tm_min=56, tm_sec=19, tm_wday=0, tm_yday=165, tm_isdst=1)'
p1016
sS'widthcm'
p1017
I30
sS'distancecm'
p1018
I15
sS'gamma'
p1019
F1
ssS'vsig'
p1020
g994
(g995
(I0
tS'b'
tRp1021
(I1
(L975L
tg997
(S'f2'
I0
I1
tRp1022
(I3
S'<'
NNNI-1
I-1
I0
tbI00
S'\x00~\x00~\x00~\x00~\x00~\x00~\x00~\x00~\x00~\x00~\x00~\x00~\x00~\x00~\x00~\x00~\x00~\x00~\x00~\x00~\x00~\x00~\x00~\x00~\x00~\x00~\x00~\x00~\x00~\x00~\x00~\x00~\x00~\x00~\x00~\x00~\x00~\x00~\x00~\x00~\x00~\x00~\x00~\x00~\x00~\x00~\x00~\x00~\x00~\x00~\x00~\x00~\x00~\x00~\x00~\x00~\x00~\x00~\x00~\x00~\x00~\x00~\x00~\x00~\x00~\x00~\x00~\x00~\x00~\x00~\x00~\x00~\x00~\x00~\x00~\x00~\x00~\x00~\x00~\x00~\x00~\x00~\x00~\x00~\x00~\x00~\x00~\x00~\x00~\x00~\x00~\x00~\x00~\x00~\x00~\x00~\x00~\x00~\x00~\x00~\x00~\x00~\x00~\x00~\x00~\x00~\x00~\x00~\x00~\x00~\x00~\x00~\x00~\x00~\x00~\x00~\x00~\x00~\x00~\x00~\x00~\x00~\x00~\x00~\x00~\x00~\x00~\x00~\x00~\x00~\x00~\x00~\x00~\x00~\x00~\x00~\x00~\x00~\x00~\x00~\x00~\x00~\x00~\x00~\x00~\x00~\x00~\x00~\x00~\x00~\x00~\x00~\x00~\x00~\x00~\x00~\x00~\x00~\x00~\x00~\x00~\x00~\x00~\x00~\x00~\x00~\x00~\x00~\x00~\x00~\x00~\x00~\x00~\x00~\x00~\x00~\x00~\x00~\x00~\x00~\x00~\x00~\x00~\x00~\x00~\x00~\x00~\x00~\x00~\x00~\x00~\x00~\x00~\x00~\x00~\x00~\x00~\x00~\x00~\x00~\x00~\x00~\x00~\x00~\x00~\x00~\x00~\x00~\x00~\x00~\x00~\x00~\x00~\x00~\x00~\x00~\x00~\x00~\x00~\x00~\x00~\x00~\x00~\x00~\x00~\x00~\x00~\x00~\x00~\x00~\x00~\x00~\x00~\x00~\x00~\x00~\x00~\x00~\x00~\x00~\x00~\x00~\x00~\x00~\x00~\x00~\x00~\x00~\x00~\x00~\x00~\x00~\x00~\x00~\x00~\x00~\x00~\x00~\x00~\x00~\x00~\x00~\x00~\x00~\x00~\x00~\x00~\x00~\x00~\x00~\x00~\x00~\x00~\x00~\x00~\x00~\x00~\x00~\x00~\x00~\x00~\x00~\x00~\x00~\x00~\x00~\x00~\x00~\x00~\x00~\x00~\x00~\x00~\x00~\x00~\x00~\x00~\x00~\x00~\x00~\x00~\x00~\x00~\x00~\x00~\x00~\x00~\x00~\x00~\x00~\x00~\x00~\x00~\x00~\x00~\x00~\x00~\x00~\x00~\x00~\x00~\x00~\x00~\x00~\x00~\x00~\x00~\x00~\x00~\x00~\x00~\x00~\x00~\x00~\x00~\x00~\x00~\x00~\x00~\x00~\x00~\x00~\x00~\x00~\x00~\x00~\x00~\x00~\x00~\x00~\x00~\x00~\x00~\x00~\x00~\x00~\x00~\x00~\x00~\x00~\x00~\x00~\x00~\x00~\x00~\x00~\x00~\x00~\x00~\x00~\x00~\x00~\x00~\x00~\x00~\x00~\x00~\x00~\x00~\x00~\x00~\x00~\x00~\x00~\x00~\x00~\x00~\x00~\x00~\x00~\x00~\x00~\x00~\x00~\x00~\x00~\x00~\x00~\x00~\x00~\x00~\x00~\x00~\x00~\x00~\x00~\x00~\x00~\x00~\x00~\x00~\x00~\x00~\x00~\x00~\x00~\x00~\x00~\x00~\x00~\x00~\x00~\x00~\x00~\x00~\x00~\x00~\x00~\x00~\x00~\x00~\x00~\x00~\x00~\x00~\x00~\x00~\x00~\x00~\x00~\x00~\x00~\x00~\x00~\x00~\x00~\x00~\x00~\x00~\x00~\x00~\x00~\x00~\x00~\x00~\x00~\x00~\x00~\x00~\x00~\x00~\x00~\x00~\x00~\x00~\x00~\x00~\x00~\x00~\x00~\x00~\x00~\x00~\x00~\x00~\x00~\x00~\x00~\x00~\x00~\x00~\x00~\x00~\x00~\x00~\x00~\x00~\x00~\x00~\x00~\x00~\x00~\x00~\x00~\x00~\x00~\x00~\x00~\x00~\x00~\x00~\x00~\x00~\x00~\x00~\x00~\x00~\x00~\x00~\x00~\x00~\x00~\x00~\x00~\x00~\x00~\x00~\x00~\x00~\x00~\x00~\x00~\x00~\x00~\x00~\x00~\x00~\x00~\x00~\x00~\x00~\x00~\x00~\x00~\x00~\x00~\x00~\x00~\x00~\x00~\x00~\x00~\x00~\x00~\x00~\x00~\x00~\x00~\x00~\x00~\x00~\x00~\x00~\x00~\x00~\x00~\x00~\x00~\x00~\x00~\x00~\x00~\x00~\x00~\x00~\x00~\x00~\x00~\x00~\x00~\x00~\x00~\x00~\x00~\x00~\x00~\x00~\x00~\x00~\x00~\x00~\x00~\x00~\x00~\x00~\x00~\x00~\x00~\x00~\x00~\x00~\x00~\x00~\x00~\x00~\x00~\x00~\x00~\x00~\x00~\x00~\x00~\x00~\x00~\x00~\x00~\x00~\x00~\x00~\x00~\x00~\x00~\x00~\x00~\x00~\x00~\x00~\x00~\x00~\x00~\x00~\x00~\x00~\x00~\x00~\x00~\x00~\x00~\x00~\x00~\x00~\x00~\x00~\x00~\x00~\x00~\x00~\x00~\x00~\x00~\x00~\x00~\x00~\x00~\x00~\x00~\x00~\x00~\x00~\x00~\x00~\x00~\x00~\x00~\x00~\x00~\x00~\x00~\x00~\x00~\x00~\x00~\x00~\x00~\x00~\x00~\x00~\x00~\x00~\x00~\x00~\x00~\x00~\x00~\x00~\x00~\x00~\x00~\x00~\x00~\x00~\x00~\x00~\x00~\x00~\x00~\x00~\x00~\x00~\x00~\x00~\x00~\x00~\x00~\x00~\x00~\x00~\x00~\x00~\x00~\x00~\x00~\x00~\x00~\x00~\x00~\x00~\x00~\x00~\x00~\x00~\x00~\x00~\x00~\x00~\x00~\x00~\x00~\x00~\x00~\x00~\x00~\x00~\x00~\x00~\x00~\x00~\x00~\x00~\x00~\x00~\x00~\x00~\x00~\x00~\x00~\x00~\x00~\x00~\x00~\x00~\x00~\x00~\x00~\x00~\x00~\x00~\x00~\x00~\x00~\x00~\x00~\x00~\x00~\x00~\x00~\x00~\x00~\x00~\x00~\x00~\x00~\x00~\x00~\x00~\x00~\x00~\x00~\x00~\x00~\x00~\x00~\x00~\x00~\x00~\x00~\x00~\x00~\x00~\x00~\x00~\x00~\x00~\x00~\x00~\x00~\x00~\x00~\x00~\x00~\x00~\x00~\x00~\x00~\x00~\x00~\x00~\x00~\x00~\x00~\x00~\x00~\x00~\x00~\x00~\x00~\x00~\x00~\x00~\x00~\x00~\x00~\x00~\x00~\x00~\x00~\x00~\x00~\x00~\x00~\x00~\x00~\x00~\x00~\x00~\x00~\x00~\x00~\x00~\x00~\x00~\x00~\x00~\x00~\x00~\x00~\x00~\x00~\x00~\x00~\x00~\x00~\x00~\x00~\x00~\x00~\x00~\x00~\x00~\x00~\x00~\x00~\x00~\x00~\x00~\x00~\x00~\x00~\x00~\x00~\x00~\x00~\x00~\x00~\x00~\x00~\x00~\x00~\x00~\x00~\x00~\x00~\x00~\x00~\x00~\x00~\x00~\x00~\x00~\x00~\x00~\x00~\x00~\x00~\x00~\x00~\x00~\x00~\x00~\x00~\x00~\x00~\x00~\x00~\x00~\x00~\x00~\x00~\x00~\x00~\x00~\x00~\x00~\x00~\x00~\x00~\x00~\x00~\x00~\x00~\x00~\x00~\x00~\x00~\x00~\x00~\x00~\x00~\x00~\x00~\x00~\x00~\x00~\x00~\x00~\x00~\x00~\x00~\x00~\x00~\x00~\x00~\x00~\x00~\x00~\x00~\x00~\x00~\x00~\x00~\x00~\x00~\x00~\x00~\x00~\x00~\x00~\x00~\x00~\x00~\x00~\x00~\x00~\x00~\x00~\x00~\x00~\x00~\x00~\x00~\x00~\x00~\x00~\x00~\x00~\x00~\x00~\x00~\x00~\x00~\x00~\x00~\x00~\x00~\x00~'
tbsS'platform'
p1023
(dp1024
S'opengl'
p1025
S'4.2.0 - Build 10.18.10.3496'
p1026
sS'python'
p1027
S'2.7.11'
p1028
sS'hardware'
p1029
(S'Intel64 Family 6 Model 60 Stepping 3, GenuineIntel'
p1030
S'AMD64'
p1031
tp1032
sS'aibstim'
p1033
S'1.04'
p1034
sS'pyglet'
p1035
S'1.2.4'
p1036
sS'os'
p1037
(S'Windows'
p1038
S'7'
S'6.1.7601'
p1039
tp1040
sS'psychopy'
p1041
S'1.82.01'
p1042
ssS'window'
p1043
S"Window(allowGUI=False, allowStencil=False, autoLog=True, bitsMode=UNKNOWN, blendMode='avg', color=array([ 0.,  0.,  0.]), colorSpace='rgb', fullscr=UNKNOWN, gamma=None, lms=UNKNOWN, monitor=<psychopy.monitors.calibTools.Monitor instance at 0x00000000094FB848>, name='window1', pos=[0, 0], screen=0, size=array([1280, 1024]), stereo=False, units='deg', useFBO=False, viewOri=0.0, viewPos=None, viewScale=None, waitBlanking=True, winType='pyglet')"
p1044
sS'score'
p1045
(lp1046
I0
asS'syncsqrcolorsequence'
p1047
(lp1048
I-1
aI1
asS'stim_on_frame'
p1049
NsS'rewardline'
p1050
I0
sS'do'
p1051
NsS'bg_luminance'
p1052
F0
sS'duration_on'
p1053
I1
sS'syncpulse'
p1054
S'False'
p1055
sS'di'
p1056
NsS'vsynctimes'
p1057
(lp1058
sS'repetitions'
p1059
I8
sS'volumelimit'
p1060
F2.5
sS'triallog'
p1061
(lp1062
sS'stoptime'
p1063
F16.655464856176422
sS'auditory_stimulus_log'
p1064
(lp1065
sS'dx'
p1066
(lp1067
Fnan
aFnan
aFnan
aFnan
aFnan
aFnan
aFnan
aFnan
aFnan
aFnan
aFnan
aFnan
aFnan
aFnan
aFnan
aFnan
aFnan
aFnan
aFnan
aFnan
aFnan
aFnan
aFnan
aFnan
aFnan
aFnan
aFnan
aFnan
aFnan
aFnan
aFnan
aFnan
aFnan
aFnan
aFnan
aFnan
aFnan
aFnan
aFnan
aFnan
aFnan
aFnan
aFnan
aFnan
aFnan
aFnan
aFnan
aFnan
aFnan
aFnan
aFnan
aFnan
aFnan
aFnan
aFnan
aFnan
aFnan
aFnan
aFnan
aFnan
aFnan
aFnan
aFnan
aFnan
aFnan
aFnan
aFnan
aFnan
aFnan
aFnan
aFnan
aFnan
aFnan
aFnan
aFnan
aFnan
aFnan
aFnan
aFnan
aFnan
aFnan
aFnan
aFnan
aFnan
aFnan
aFnan
aFnan
aFnan
aFnan
aFnan
aFnan
aFnan
aFnan
aFnan
aFnan
aFnan
aFnan
aFnan
aFnan
aFnan
aFnan
aFnan
aFnan
aFnan
aFnan
aFnan
aFnan
aFnan
aFnan
aFnan
aFnan
aFnan
aFnan
aFnan
aFnan
aFnan
aFnan
aFnan
aFnan
aFnan
aFnan
aFnan
aFnan
aFnan
aFnan
aFnan
aFnan
aFnan
aFnan
aFnan
aFnan
aFnan
aFnan
aFnan
aFnan
aFnan
aFnan
aFnan
aFnan
aFnan
aFnan
aFnan
aFnan
aFnan
aFnan
aFnan
aFnan
aFnan
aFnan
aFnan
aFnan
aFnan
aFnan
aFnan
aFnan
aFnan
aFnan
aFnan
aFnan
aFnan
aFnan
aFnan
aFnan
aFnan
aFnan
aFnan
aFnan
aFnan
aFnan
aFnan
aFnan
aFnan
aFnan
aFnan
aFnan
aFnan
aFnan
aFnan
aFnan
aFnan
aFnan
aFnan
aFnan
aFnan
aFnan
aFnan
aFnan
aFnan
aFnan
aFnan
aFnan
aFnan
aFnan
aFnan
aFnan
aFnan
aFnan
aFnan
aFnan
aFnan
aFnan
aFnan
aFnan
aFnan
aFnan
aFnan
aFnan
aFnan
aFnan
aFnan
aFnan
aFnan
aFnan
aFnan
aFnan
aFnan
aFnan
aFnan
aFnan
aFnan
aFnan
aFnan
aFnan
aFnan
aFnan
aFnan
aFnan
aFnan
aFnan
aFnan
aFnan
aFnan
aFnan
aFnan
aFnan
aFnan
aFnan
aFnan
aFnan
aFnan
aFnan
aFnan
aFnan
aFnan
aFnan
aFnan
aFnan
aFnan
aFnan
aFnan
aFnan
aFnan
aFnan
aFnan
aFnan
aFnan
aFnan
aFnan
aFnan
aFnan
aFnan
aFnan
aFnan
aFnan
aFnan
aFnan
aFnan
aFnan
aFnan
aFnan
aFnan
aFnan
aFnan
aFnan
aFnan
aFnan
aFnan
aFnan
aFnan
aFnan
aFnan
aFnan
aFnan
aFnan
aFnan
aFnan
aFnan
aFnan
aFnan
aFnan
aFnan
aFnan
aFnan
aFnan
aFnan
aFnan
aFnan
aFnan
aFnan
aFnan
aFnan
aFnan
aFnan
aFnan
aFnan
aFnan
aFnan
aFnan
aFnan
aFnan
aFnan
aFnan
aFnan
aFnan
aFnan
aFnan
aFnan
aFnan
aFnan
aFnan
aFnan
aFnan
aFnan
aFnan
aFnan
aFnan
aFnan
aFnan
aFnan
aFnan
aFnan
aFnan
aFnan
aFnan
aFnan
aFnan
aFnan
aFnan
aFnan
aFnan
aFnan
aFnan
aFnan
aFnan
aFnan
aFnan
aFnan
aFnan
aFnan
aFnan
aFnan
aFnan
aFnan
aFnan
aFnan
aFnan
aFnan
aFnan
aFnan
aFnan
aFnan
aFnan
aFnan
aFnan
aFnan
aFnan
aFnan
aFnan
aFnan
aFnan
aFnan
aFnan
aFnan
aFnan
aFnan
aFnan
aFnan
aFnan
aFnan
aFnan
aFnan
aFnan
aFnan
aFnan
aFnan
aFnan
aFnan
aFnan
aFnan
aFnan
aFnan
aFnan
aFnan
aFnan
aFnan
aFnan
aFnan
aFnan
aFnan
aFnan
aFnan
aFnan
aFnan
aFnan
aFnan
aFnan
aFnan
aFnan
aFnan
aFnan
aFnan
aFnan
aFnan
aFnan
aFnan
aFnan
aFnan
aFnan
aFnan
aFnan
aFnan
aFnan
aFnan
aFnan
aFnan
aFnan
aFnan
aFnan
aFnan
aFnan
aFnan
aFnan
aFnan
aFnan
aFnan
aFnan
aFnan
aFnan
aFnan
aFnan
aFnan
aFnan
aFnan
aFnan
aFnan
aFnan
aFnan
aFnan
aFnan
aFnan
aFnan
aFnan
aFnan
aFnan
aFnan
aFnan
aFnan
aFnan
aFnan
aFnan
aFnan
aFnan
aFnan
aFnan
aFnan
aFnan
aFnan
aFnan
aFnan
aFnan
aFnan
aFnan
aFnan
aFnan
aFnan
aFnan
aFnan
aFnan
aFnan
aFnan
aFnan
aFnan
aFnan
aFnan
aFnan
aFnan
aFnan
aFnan
aFnan
aFnan
aFnan
aFnan
aFnan
aFnan
aFnan
aFnan
aFnan
aFnan
aFnan
aFnan
aFnan
aFnan
aFnan
aFnan
aFnan
aFnan
aFnan
aFnan
aFnan
aFnan
aFnan
aFnan
aFnan
aFnan
aFnan
aFnan
aFnan
aFnan
aFnan
aFnan
aFnan
aFnan
aFnan
aFnan
aFnan
aFnan
aFnan
aFnan
aFnan
aFnan
aFnan
aFnan
aFnan
aFnan
aFnan
aFnan
aFnan
aFnan
aFnan
aFnan
aFnan
aFnan
aFnan
aFnan
aFnan
aFnan
aFnan
aFnan
aFnan
aFnan
aFnan
aFnan
aFnan
aFnan
aFnan
aFnan
aFnan
aFnan
aFnan
aFnan
aFnan
aFnan
aFnan
aFnan
aFnan
aFnan
aFnan
aFnan
aFnan
aFnan
aFnan
aFnan
aFnan
aFnan
aFnan
aFnan
aFnan
aFnan
aFnan
aFnan
aFnan
aFnan
aFnan
aFnan
aFnan
aFnan
aFnan
aFnan
aFnan
aFnan
aFnan
aFnan
aFnan
aFnan
aFnan
aFnan
aFnan
aFnan
aFnan
aFnan
aFnan
aFnan
aFnan
aFnan
aFnan
aFnan
aFnan
aFnan
aFnan
aFnan
aFnan
aFnan
aFnan
aFnan
aFnan
aFnan
aFnan
aFnan
aFnan
aFnan
aFnan
aFnan
aFnan
aFnan
aFnan
aFnan
aFnan
aFnan
aFnan
aFnan
aFnan
aFnan
aFnan
aFnan
aFnan
aFnan
aFnan
aFnan
aFnan
aFnan
aFnan
aFnan
aFnan
aFnan
aFnan
aFnan
aFnan
aFnan
aFnan
aFnan
aFnan
aFnan
aFnan
aFnan
aFnan
aFnan
aFnan
aFnan
aFnan
aFnan
aFnan
aFnan
aFnan
aFnan
aFnan
aFnan
aFnan
aFnan
aFnan
aFnan
aFnan
aFnan
aFnan
aFnan
aFnan
aFnan
aFnan
aFnan
aFnan
aFnan
aFnan
aFnan
aFnan
aFnan
aFnan
aFnan
aFnan
aFnan
aFnan
aFnan
aFnan
aFnan
aFnan
aFnan
aFnan
aFnan
aFnan
aFnan
aFnan
aFnan
aFnan
aFnan
aFnan
aFnan
aFnan
aFnan
aFnan
aFnan
aFnan
aFnan
aFnan
aFnan
aFnan
aFnan
aFnan
aFnan
aFnan
aFnan
aFnan
aFnan
aFnan
aFnan
aFnan
aFnan
aFnan
aFnan
aFnan
aFnan
aFnan
aFnan
aFnan
aFnan
aFnan
aFnan
aFnan
aFnan
aFnan
aFnan
aFnan
aFnan
aFnan
aFnan
aFnan
aFnan
aFnan
aFnan
aFnan
aFnan
aFnan
aFnan
aFnan
aFnan
aFnan
aFnan
aFnan
aFnan
aFnan
aFnan
aFnan
aFnan
aFnan
aFnan
aFnan
aFnan
aFnan
aFnan
aFnan
aFnan
aFnan
aFnan
aFnan
aFnan
aFnan
aFnan
aFnan
aFnan
aFnan
aFnan
aFnan
aFnan
aFnan
aFnan
aFnan
aFnan
aFnan
aFnan
aFnan
aFnan
aFnan
aFnan
aFnan
aFnan
aFnan
aFnan
aFnan
aFnan
aFnan
aFnan
aFnan
aFnan
aFnan
aFnan
aFnan
aFnan
aFnan
aFnan
aFnan
aFnan
aFnan
aFnan
aFnan
aFnan
aFnan
aFnan
aFnan
aFnan
aFnan
aFnan
aFnan
aFnan
aFnan
aFnan
aFnan
aFnan
aFnan
aFnan
aFnan
aFnan
aFnan
aFnan
aFnan
aFnan
aFnan
aFnan
aFnan
aFnan
aFnan
aFnan
aFnan
aFnan
aFnan
aFnan
aFnan
aFnan
aFnan
aFnan
aFnan
aFnan
aFnan
aFnan
aFnan
aFnan
aFnan
aFnan
aFnan
aFnan
aFnan
aFnan
aFnan
aFnan
aFnan
aFnan
aFnan
aFnan
aFnan
aFnan
aFnan
aFnan
aFnan
aFnan
aFnan
aFnan
aFnan
aFnan
aFnan
aFnan
aFnan
aFnan
aFnan
aFnan
aFnan
aFnan
aFnan
aFnan
aFnan
aFnan
aFnan
aFnan
aFnan
aFnan
aFnan
aFnan
aFnan
aFnan
aFnan
aFnan
aFnan
aFnan
aFnan
aFnan
aFnan
aFnan
aFnan
aFnan
aFnan
aFnan
aFnan
aFnan
aFnan
aFnan
aFnan
aFnan
aFnan
aFnan
aFnan
aFnan
aFnan
aFnan
aFnan
aFnan
aFnan
aFnan
aFnan
aFnan
aFnan
aFnan
aFnan
aFnan
aFnan
aFnan
aFnan
aFnan
aFnan
aFnan
aFnan
aFnan
aFnan
aFnan
aFnan
aFnan
aFnan
aFnan
aFnan
aFnan
aFnan
aFnan
aFnan
aFnan
aFnan
aFnan
aFnan
aFnan
aFnan
aFnan
aFnan
aFnan
aFnan
aFnan
aFnan
aFnan
aFnan
aFnan
aFnan
aFnan
aFnan
aFnan
aFnan
aFnan
aFnan
aFnan
aFnan
aFnan
aFnan
aFnan
aFnan
asS'right_response_time'
p1068
F-inf
sS'starttime'
p1069
F5.1317751967872027e-06
sS'trialvars'
p1070
NsS'syncsqrloc'
p1071
(I910
I-450
tp1072
sS'sync'
p1073
S"SyncSquare(autoDraw=False, autoLog=True, color=array([-1., -1., -1.]), colorSpace='rgb', contrast=1.0, depth=0, interpolate=False, mask='none', maskParams=None, name='unnamed SyncSquare', opacity=1.0, ori=0.0, phase=array([ 0.,  0.]), pos=array([ 910., -450.]), rgbPedestal=array([ 0.,  0.,  0.]), sf=array([ 0.01,  0.01]), size=array([ 100.,  100.]), tex=None, texRes=128, units='pix', win=Window(...))"
p1074
sS'next_trial_time'
p1075
F-inf
sS'field_size'
p1076
(I200
I200
tp1077
sS'syncsqrfreq'
p1078
I60
sS'decision'
p1079
I00
sS'trial_hold'
p1080
I00
sS'rewardlines'
p1081
(lp1082
I0
asS'trait_names'
p1083
(lp1084
sS'wwidth'
p1085
cnumpy.core.multiarray
scalar
p1086
(g997
(S'i4'
I0
I1
tRp1087
(I3
S'<'
NNNI-1
I-1
I0
tbS'\x00\x05\x00\x00'
tRp1088
sS'startdatetime'
p1089
S'2016-07-18 10:14:47.991000'
p1090
sS'syncsqrBit'
p1091
I00
sS'keycontrol'
p1092
I01
sS'eyedatalog'
p1093
(lp1094
sS'process_response'
p1095
I00
sS'mouseid'
p1096
S'testmouse'
p1097
sS'invertdo'
p1098
I00
sS'doport'
p1099
I1
sS'rewardlimit'
p1100
NsS'num_dots'
p1101
I20
sS'performanceport'
p1102
I9998
sS'lapdata'
p1103
(dp1104
S'commands'
p1105
(lp1106
sS'object'
p1107
NsS'iscorrect'
p1108
NsS'lickdata'
p1109
NsS'laptime'
p1110
NsS'posx'
p1111
NsS'reward'
p1112
(lp1113
ssS'vsyncintervals'
p1114
g994
(g995
(I0
tS'b'
tRp1115
(I1
(L974L
tg997
(S'f8'
I0
I1
tRp1116
(I3
S'<'
NNNI-1
I-1
I0
tbI00
S'\x00\xf4L]\x9ff0@\x00X\xde\x1c\xee\xa30@\x00dtE\\\xa70@\x00\x9c\xcc\xb1\xd1\xb20@\x00\x10yR\xdf\x9d0@\x00H\x1b\xa4p\xae0@\x00h\x84\xda\x05\xb90@\x00 \xc3\xcbt\x9e0@\x00\x18[*&\xa40@\x00\xd4\x8b\xbe\xc8\xa30@\x00P\x1bn-\xac0@\x00\x00N\x02\xd0\xab0@\x00\xc81zF\x8f0@\x00h\x92\xdb5\xcf0@\x00|sl\x82\x890@\x00\x98\xea}\xee\xdc0@\x00\x88\xeakj~0@\x00x\xeb\x0e\x01\x9a0@\x00\x00\x11\xe7\xd3\xa50@\x00\xa8C\xb1\xb9\xa70@\x00\x94\xae\xf5\x9e\xbd0@\x00\x18\xa6FR\xc00@\x00$\x96E"\xaa0@\x00\x0c=\xca\x8f~0@\x00<\x86\xb2\x12\xc20@\x00\xcc#\x1dz\xa90@\x00\xd0\xd7m\xa1\xa60@\x004\xe0\xbe\xb7\xaa0@\x00\xd8|*\xec\xa60@\x00\x88\xf9\xa3\xaa\xab0@\x00\x14\xa7\xd9\xfe\xa60@\x00\xb8\x14+g\xb30@\x00\xf8\x12\x8b7\xd60@\x00\xd0\xa9\x0c\xdbj0@\x00\xd8@F\x00\xb80@\x008\xef\x1cQ\xa50@\x00\xb4~\xcc\xb5\xad0@\x00d\xb1`X\xad0@\x00\xe8M\xa4\x99\xb20@\x00\x9c\xad\x88K\xa40@\x00\xd0\xd7m\xa1\xa60@\x00\x88T\xb1\x1c\xa90@\x00\xe0\x03\xf5\xc0\xaf0@\x00 \xc3\xcbt\x9e0@\x00d\x0cn\xca\xaa0@\x00(,\xa4\xd3\xaf0@\x00\x94\xcb\xb0\x04\x9e0@\x00h\xa2\xcc{\xb00@\x00T\x0c\xdaP\xaf0@\x00\xb4\x9b\x87\x1b\x8e0@\x00(\xa6\xda\xcb\xbb0@\x00\x80\x91\x02\\\xb10@\x00@\x94\xd9\x9b\xa50@\x00\xec\xb7\x0f\xa5\xaa0@\x00\xbc~\x96r\xab0@\x000\xa5mx\xa20@\x000,n\x90\xad0@\x00,;\x02m\xaa0@\x00\xacp\x01\xc9\x990@\x00\xc02\xe7\x99\xa80@\x00\x9c\x8f\x96\xd5\xac0@\x00|E\x89\xc6\xb00@\x00\xb0\xca{\x8e\xb00@\x00\xd8|*\xec\xa60@\x00\xe8?\xa3i\x9c0@\x00\xec\x98\xe6\x1e\x9c0@\x00\xa4\xf8n4\xbe0@\x00\xcc#\x1dz\xa90@\x00H\x94\xa3X\xa30@\x00\xf8\xf2*\xa1\xb00@\x00\x10=n\xf3\xae0@\x00\x00\x11\xe7\xd3\xa50@\x00\xd4\x04\xbe\xb0\x980@\x00T\x0c\xdaP\xaf0@\x00\xf8k*\x89\xa50@\x00\\t{\x9f\xa90@\x00\xc82\xb1V\xa60@\x00\xb8\x8d*O\xa80@\x008,8M\xab0@\x00@\x94\xd9\x9b\xa50@\x00\xd8^8v\xaf0@\x00\xb8\xe87\xc1\xa50@\x00leU\xe3\xda0@\x00T\xa1]\x8em0@\x00\xf4\x02\xf6\x8d\xc40@\x00\x0c\x02\x1d\xb4\xa60@\x00\x98\xf7\xc9\x03y0@\x00h\x0c\x12.\xdb0@\x00\x88\xf9\xa3\xaa\xab0@\x00D\xe0R1\xa60@\x00\x10\x97DU\x950@\x00\xb8\xacS\xd5\xb60@\x00\xf8.\x0f\x8d\x9f0@\x00\x80\xaf\xf4\xd1\xa80@\x00<\xe0\x88t\xa80@\x00T\xcf\xbeT\xa90@\x00`\xc0\xf44\xaa0@\x00D\xc2`\xbb\xae0@\x00\xb4\x9c\xbe+\xa50@\x00(\x0e\xb2]\xb80@\x00\x14\x01\xb0`\x8d0@\x00@X\xf5\xaf\xb60@\x00\x98\x9e*\xb2\xa90@\x00HX\xbfl\xb40@\x00\x80\t\xcb3\x8f0@\x00\x10\\\x97y\xbd0@\x00$\xd3`\x1e\xb00@\x00\x90\x9e`\xf5\xab0@\x00\x90\xf9mg\xa90@\x00T*\xcc\xc6\xa60@\x00\x80T\xe7_\xab0@\x00\x84cE\xf9\xa50@\x00\xf4\\\xcc\xef\xaa0@\x00\xe0^\x023\xad0@\x00\xc4AE3\xa30@\x00\xc4o\xa6\xf9\xde0@\x00`\x92\x93nn0@\x00\x14\x0f\xb1\x90\xa30@\x00\x08z\xbf2\xb70@\x00\xf8k*\x89\xa50@\x00\xec\xb7\x0f\xa5\xaa0@\x00|\xfb\xa3\xaa\xab0@\x00\xe8\xc6\xa3\x81\xa70@\x00\xc02\xe7\x99\xa80@\x00\x14\x88\xb0x\x980@\x004\xff\xe7=\xb90@\x00\x98C\x1d@\xac0@\x00P\xd1\x88\x11\xa70@\x00\x08\xb6\xa3\x1e\xa60@\x00|c{<\xa80@\x00\xec\x12\x1d\x17\xa80@\x00\xcc\xe6\x01~\xa30@\x00h\n\xa4\r\xad0@\x00\x885\x88\x96\x9a0@\x00\xb4\xda\x108\xc20@\x00<XQL\x860@\x00l\xa19\xcf\xc90@\x00\xd4\xc8\xd9\xc4\xa90@\x00\x8c\x08\x02D\xa60@\x00\x88\xf9\xa3\xaa\xab0@\x00\xa0\x9e\xf4n\xa70@\x00\x9c\xe9l7\x930@\x00\x90\xbd\x89{\xba0@\x00p\xaf`X\xad0@\x00\xf8\xa8E\x85\xab0@\x00\x94\xad\xbe\x8e\xa60@\x00\x0c\xa7\x0fB\xa90@\x00\x90\xf9mg\xa90@\x00d7*`\xa10@\x00\x80\xb0+\xe2\xbf0@\x00\x1c\x87C%\x7f0@\x000\xb3n\xa8\xb80@\x00pe{<\xa80@\x00p\nn\xca\xaa0@\x00\xd4\x8b\xbe\xc8\xa30@\x00\xc82\xb1V\xa60@\x00\xfc>\xa46\xb10@\x00\xd4\x8b\xbe\xc8\xa30@\x00\xb8\x8d*O\xa80@\x00\xf0MnV\xb00@\x00X\xde\x1c\xee\xa30@\x00\x88\xaf\xbe\x8e\xa60@\x00x\x189\xb7\xbe0@\x00\xdcm\x96\x0f\xaa0@\x00t\x19\xccc\xa50@\x00\xdc\x12\x89\x9d\xac0@\x00\xec\xd5\x01\x1b\xa20@\x00\x8c&\xf4\xb9\x9d0@\x00P\x1bn-\xac0@\x00\xd0\xd7m\xa1\xa60@\x00Pv{\x9f\xa90@\x00\xe0!\xe76\xa70@\x00\x14L\xcc\x8c\xa90@\x00X\x1b8\xea\xa90@\x004;\xcc)\xa80@\x00L*\x02\n\xa90@\x00\xe4\x12SZ\xaa0@\x00\xf4\\\xcc\xef\xaa0@\x00Tf\xb0\xb2\x950@\x00\xb8\xf68\xf1\xbb0@\x00\xec\x12\x1d\x17\xa80@\x00\x90\xf9mg\xa90@\x00\xd4m\xccR\xac0@\x00`\xfc\xd8 \x990@\x00\x94S\xe8,\xc00@\x00\xc8\xf5\x95Z\xa00@\x00\xd0\xd7m\xa1\xa60@\x00\x00\x11\xe7\xd3\xa50@\x00\x94\x8f\xcc\x18\xaf0@\x00\x00N\x02\xd0\xab0@\x00\xb8\x14+g\xb30@\x00\x90rmO\x9e0@\x00\xbc~\x96r\xab0@\x00\xd40\xb1V\xa60@\x00\x1c\xf1\x88\xd7\xa90@\x00LI+\x90\xb70@\x00\x08/\xa3\x06\x9b0@\x00\x14L\xcc\x8c\xa90@\x00\xc4\xe67\xc1\xa50@\x00\x94\x08\xcc\x00\xa40@\x00\xa4\xbc\x8aH\xcf0@\x00d\xedDD\x9c0@\x000hR|\x9c0@\x00\x90\x9e`\xf5\xab0@\x00|\xbe\x88\xae\xa50@\x00\xfc\x01\x89:\xab0@\x00\xe0^\x023\xad0@\x00P\x94m\x15\xa10@\x00l\xdc\xe6\xaa\xa10@\x004x\xe7%\xae0@\x00 \x1e\xd9\xe6\x9b0@\x00T\xd0\xf5d\xc00@\x00P\xc0`\xbb\xae0@\x000J`\x06\xa50@\x00\xe8^\xcc\xef\xaa0@\x00\xec\\\x023\xad0@\x00\xf4\xd5\xcb\xd7\x9f0@\x00\xb0\xabR\x08\xa20@\x00,\xff\x1d\x81\xbb0@\x00\xc8\x8d\xbe\xc8\xa30@\x00\x805\xbe\xd9\x9c0@\x00\xb4\xf7\xcb\x9d\xa20@\x00@\x95\x10\xac\xbc0@\x00\xb8\x8d*O\xa80@\x00$\xf1R\x94\xa70@\x00`\xa1\xcb\xae\x9b0@\x00\xa4\x8f`\x92\xaa0@\x00\x10[`i\xa60@\x00<I\x97\x16\xbc0@\x00 =\x02m\xaa0@\x00\xbcA{v\xa50@\x00\xe4\x12SZ\xaa0@\x00\xd0\x9aR\xa5\xa00@\x00\xc0\xc9\xd8\xf7\x940@\x00h\x0b\xdb\x1d\xc40@\x00\xfc\\\x96\xac\xa80@\x00p(`@\xa20@\x00\xfc\xe3\x96\xc4\xb30@\x00x\xaf*\x15\xab0@\x00\x8c\x08\x02D\xa60@\x00\x0c\xa7\x0fB\xa90@\x00(\xa5\xa3\xbb\xa40@\x00\xbc~\x96r\xab0@\x00\xa8$\x883\x990@\x00\xb8\xcaEK\xae0@\x00\xec>\x10\xbd\xb50@\x004w\xb0\x15\x970@\x008,8M\xab0@\x00\xd0|`/\xa90@\x00\xa8C\xb1\xb9\xa70@\x00l\xfb\x0f1\xb00@\x00H\x94\xa3X\xa30@\x00PX\x89)\xb20@\x00T\xcf\xbeT\xa90@\x00h\xde\xb0g\x9f0@\x00\xa0\xe8\xd9\x8a\xac0@\x004x\xe7%\xae0@\x00`\xa1\xcb\xae\x9b0@\x00\xd0\xd7m\xa1\xa60@\x00(\xc4\xccA\xb30@\x008\xef\x1cQ\xa50@\x00lV\x1d\xa3\xad0@\x00\xd0\x03aG\xb40@\x00L\xc2*x\xac0@\x00\x8c\xad\xf4\xd1\xa80@\x00@\xd1\xf4\x97\xab0@\x00\x0c\x02\x1d\xb4\xa60@\x00 \x87\xe7\x88\xaf0@\x00\xe8\xc6\xa3\x81\xa70@\x00h\xc0\xbe\xf1\xa70@\x00$,\x00p\x7f0@\x00p\x8b\x19s\xaa3@\x00\x80\xbe\x02_\xb2+@\x00p(`@\xa20@\x00H\xfd3\xf0S0@\x00\xf8\x98T?\xca0@\x00\xac4\x1d\xdd\xaa0@\x00\xdc\x9e\x16&T2@\x00h\x8b)\xee\xc2-@\x00dW\x8a\xf6\xc60@\x00\xcc\xaa\x1d\x92\xb40@\x00P9`\xa3\xa30@\x00\xa0\xcb\x1e%\xcc0@\x00\xc8\x14\xbf\xe0\xae0@\x00\x14L\xcc\x8c\xa90@\x00\x10=n\xf3\xae0@\x00\xf0>6\x16\x830@\x00(\xd2\xcdq\xc90@\x00\x0c \x0f*\x9e0@\x00\xe4\x99Sr\xb50@\x00\xf0k`\xcc\xa70@\x00\xfc\x01\x89:\xab0@\x00\x04\x02S\xf7\xa80@\x00\xa0\xbc\xe6\xe4\x9e0@\x00|\xeb\xb2d\xca0@\x00\xe0\x99\xaf\x0e\x850@\x00L\xc2*x\xac0@\x00\xe4\xf4`\xe4\xb20@\x00\xb0\x8d`\x92\xaa0@\x00\xa4RE\x96\xa40@\x00\xc0\x8d\xf4\x0b\xa60@\x00\xf0k`\xcc\xa70@\x00\x14L\xcc\x8c\xa90@\x00 \x87\xe7\x88\xaf0@\x00tt\xd9\xd5\xa20@\x00\xcc\xc8\x0f\x08\xac0@\x00\xfc\x1f{\xb0\xa20@\x00\x08\xf3\xbe\x1a\xac0@\x00\xac\xba\xe6\xe4\x9e0@\x00\xd0\x9b\x89\xb5\xb70@\x00\xc82\xb1V\xa60@\x00\x08.l\xf6\x830@\x00,\xa5G\x1f\xd50@\x00\x0c\xa7\x0fB\xa90@\x00,\xd2\xf3\xca\x960@\x00\xec\xb7\x0f\xa5\xaa0@\x00\xc02\xe7\x99\xa80@\x00\xcc\xc8\x0f\x08\xac0@\x00T*\xcc\xc6\xa60@\x00\xc02\xe7\x99\xa80@\x00\x8c\xea\x0f\xce\xae0@\x00t\x19\xccc\xa50@\x00\x0c\xa7\x0fB\xa90@\x008,8M\xab0@\x00\xc02\xe7\x99\xa80@\x00\xd4\x8b\xbe\xc8\xa30@\x00H\x95\xdah\xba0@\x00\x14.\xda\x16\xb20@\x00H\x93lH\x8c0@\x00\x1c\x97\xb2u\xc30@\x00L\x1b\xca\xc9{0@\x00\xb0R\xb3\xb6\xd20@\x00\x14L\xcc\x8c\xa90@\x00\xd0|`/\xa90@\x00\xe4N7F\x990@\x00\xa0C\xe7\xfc\xa90@\x00\xb44\xe7\x99\xa80@\x00\xd0|`/\xa90@\x00\x90\xf9mg\xa90@\x00\xd8|*\xec\xa60@\x00\xfc\x01\x89:\xab0@\x00\xec\x12\x1d\x17\xa80@\x00|c{<\xa80@\x00\xcc#\x1dz\xa90@\x00\xdcl_\xff\x920@\x00(\xd2\xcdq\xc90@\x00\xc8\x14\xbf\xe0\xae0@\x00\x98\x9e*\xb2\xa90@\x00\xc02\xe7\x99\xa80@\x00\xe8!\xb1\xf3\xa40@\x00 \x87\xe7\x88\xaf0@\x00`\x1b\x02\xa7\xa70@\x00\xd8|*\xec\xa60@\x00\x88\xf9\xa3\xaa\xab0@\x00H\xd1\xbeT\xa90@\x00t\x81\xa3\xf5\xa10@\x00 \x1f\x10\xf7\xb20@\x00t\xbe\xbe\xf1\xa70@\x00\xc4\x9cR\xa5\xa00@\x00@v\xe7%\xae0@\x00X\xde\x1c\xee\xa30@\x00\xb8\xab\x1c\xc5\x9f0@\x00H\xd1\xbeT\xa90@\x00\xf4 \xe8\x03\xbc0@\x00\xa0\x9d\xbd^\x900@\x00x\xceS\x9b\xb90@\x00l\xfb\x0f1\xb00@\x00\xb4\xf7\xcb\x9d\xa20@\x00\xf4\x01\xbf}\xad0@\x00\xec\x9d`\xabC7@\x00\xb8x\x1b\xaa\xd2#@\x00\xa8\x8e\xcd\xe5\xc30@\x00\x08\xb6\xa3\x1e\xa60@\x00p\nn\xca\xaa0@\x00L*\x02\n\xa90@\x00@,\x02\n\xa90@\x000\xefR\x94\xa70@\x004Z\xf5\xaf\xb60@\x00\x98\x16\xf3\x89\x870@\x00\xf00\xb3\xf0\xcf0@\x00h(\x96\x83\xa40@\x00\xc4~`/\xa90@\x00p\xcdR\xce\xa40@\x00 Z\xbd\xd2\x8a0@\x00$\x1e}J\xcc0@\x00\xd0\x14\x89\x9d\xac0@\x00\xa4\xf77$\xa70@\x00(\xe2\xbe\xb7\xaa0@\x00\x1c\xb4m\xdb\xa30@\x00\xa8\x80\xcc\xb5\xad0@\x00\xec/\xd8|\x880@\x00\xccO\x10 \xb70@\x00\x80T\xe7_\xab0@\x00\xf8\xa8E\x85\xab0@\x00\xbc\x05\x97\x8a\xb60@\x00\xe4N7F\x990@\x00\x04ka\x99\xbc0@\x00\x08\x11\xb1\x90\xa30@\x00\xd4\xe6\xcb:\xa10@\x00\xb8\xe7\x00\xb1\x8e0@\x00\x945\xf6\xb6\xc80@\x00(,\xa4\xd3\xaf0@\x00\x0c\x02\x1d\xb4\xa60@\x00$\x0fE\n\x9f0@\x00tE\xbf\t\xb30@\x00\xbc\xd9\xa3\xe4\xa80@\x00\x08\xd4\x95\x94\x9d0@\x00T\xcf\xbeT\xa90@\x00lt\x0f\x19\xa50@\x00|E\x89\xc6\xb00@\x00L\xe0\x1c\xee\xa30@\x00\x88T\xb1\x1c\xa90@\x00\xf0\xf2`\xe4\xb20@\x00lV\x1d\xa3\xad0@\x00L\xa3\x01\xf2\x9d0@\x00\x8c\'+\xca\xb40@\x00<\xe0\x88t\xa80@\x00\x08y\x88"\xa00@\x00P\xfd{\xb7\xb40@\x004;\xcc)\xa80@\x00\xe8!\xb1\xf3\xa40@\x00\xe8\xa8\xb1\x0b\xb00@\x00\x00\x11\xe7\xd3\xa50@\x00l\x19\x02\xa7\xa70@\x00\xb4\xf8\x02\xae\xb90@\x00L\x0b\xd9\x83\x9a0@\x00@,\x02\n\xa90@\x00\xc4AE3\xa30@\x00x\x90\x01\x8f\x9c0@\x00\xf0\xc7\xa4N\xbc0@\x00tE\xbf\t\xb30@\x00H\xef\xb0\xca\xa00@\x00\xec\xb7\x0f\xa5\xaa0@\x00d\xcfR\xce\xa40@\x00\x88\xf9\xa3\xaa\xab0@\x00\xd4\xc8\xd9\xc4\xa90@\x00\\\xb0_\x8b\x980@\x00t\x82\xda\x05\xb90@\x00\x18=8\xb0\xac0@\x00L\x85\x0f|\xa60@\x00\x04\x02S\xf7\xa80@\x00\xc02\xe7\x99\xa80@\x00\x98\x9e*\xb2\xa90@\x00\x98\x9e*\xb2\xa90@\x00\x08\x11\xb1\x90\xa30@\x00DgSI\xb10@\x004;\xcc)\xa80@\x00h\x83\xa3\xf5\xa10@\x00\xec\\\x023\xad0@\x00`\x1b\x02\xa7\xa70@\x00p(`@\xa20@\x00\xecz\xf4\xa8\xa40@\x00\xe8!\xb1\xf3\xa40@\x00\x14.\xda\x16\xb20@\x00,\x96\x0f\xdf\xa70@\x00\xd8\x9a\x1cb\x9e0@\x00\xd8^8v\xaf0@\x00\xbc\xe6m\x04\xa80@\x00d\xee{T\xb30@\x00(J\x96I\xa70@\x00\xd0\x9b\x89\xb5\xb70@\x00\xe8\xe5\xcc\x07\xb60@\x00\xfcj\x97\xdc\xbe0@\x00\x8c\xdb\xd7\x8d\x810@\x00\x1cj\x88\xbf\x9e0@\x00l\xdd\x1d\xbb\xb80@\x008J*\xc3\xa20@\x00\xf8.\x0f\x8d\x9f0@\x00\xd0^n\xb9\xb10@\x00tV\xe7_\xab0@\x00\xe8\x89\x88\x85\xa10@\x00\xb0%\x89\x00\xae0@\x00<\x85{\x02\xab0@\x00\x08/\xa3\x06\x9b0@\x00DIa\xd3\xb90@\x00H\xef\xb0\xca\xa00@\x00he\xb1\x7f\xaa0@\x00\xc0\xb9\xe7\xb1\xb30@\x00\xb4Q\xa2\xff\x880@\x00\\\x1a\xa5=\xc30@\x00|\xdcz$\x9d0@\x00\xe8!\xb1\xf3\xa40@\x00\x8c\xcc\x1dX\xb70@\x00t7\xbe\xd9\x9c0@\x00\xf0\xa8{\xc8\xad0@\x00HX\xbfl\xb40@\x00\x18\x00\x1d\xb4\xa60@\x00\x14L\xcc\x8c\xa90@\x00\x8cE\x1d@\xac0@\x00@\x94\xd9\x9b\xa50@\x00he\xb1\x7f\xaa0@\x00x\xeb\x0e\x01\x9a0@\x00$\xb5n\xa8\xb80@\x00\x14L\xcc\x8c\xa90@\x00L\xee\x1d\x1e\xba0@\x00p\xfb5\x8a}0@\x00\x9c\x16\x97\xed\xb70@\x00\x90rmO\x9e0@\x00\x8c\x8f\x02\\\xb10@\x00lV\x1d\xa3\xad0@\x00,x\x1di\xb00@\x00\xa44S \xad0@\x00\xc0P\xd9\x0f\xa00@\x00(\x87\xb1E\xad0@\x00\x84\xa0`\xf5\xab0@\x00\xcc\x8b\xf4\x0b\xa60@\x00\xec\xf3\xf3\x90\x990@\x00\xb0~(R}0@\x00pe{<\xa80@\x00\x8c\xf9G\x0e\xdc0@\x00,\xd3*\xdb\xad0@\x00<\xdfQd\x910@\x00p)\x97P\xb90@\x00\xb8o8\xd9\xb00@\x00\xb8\xab\x1c\xc5\x9f0@\x00t\xa0\xcc{\xb00@\x00\xd8\xd77^\xa40@\x00\x90\x9e`\xf5\xab0@\x00\xa0%\xf5\x86\xb20@\x00\x88\xcd\xb0\x04\x9e0@\x00<\xe0\x88t\xa80@\x00,;\x02m\xaa0@\x00\xf4\\\xcc\xef\xaa0@\x00$\xf1R\x94\xa70@\x00\x04\xa7E\x85\xab0@\x00\xd8\xd77^\xa40@\x00Tf\xb0\xb2\x950@\x00pU\x8a\xf6\xc60@\x00\x14\xa7\xd9\xfe\xa60@\x00\x1c-m\xc3\x980@\x00\xd4O\xda\xdc\xb40@\x00\xa8C\xb1\xb9\xa70@\x00X\xa28\x02\xb50@\x00H\x1b\xa4p\xae0@\x00\x04]`i\xa60@\x00<\x85{\x02\xab0@\x00Pv{\x9f\xa90@\x00\x98\x9e*\xb2\xa90@\x00\xec\xb7\x0f\xa5\xaa0@\x00l\x19\x02\xa7\xa70@\x00\xe4m`\xcc\xa70@\x00,\xe0\xf4\xfa\xac0@\x00t\x19\xccc\xa50@\x00@,\x02\n\xa90@\x00\xe8\x89\x88\x85\xa10@\x00T\xee\xe7\xda\xb70@\x00\x84\xdcD\xe1\x9a0@\x00HX\xbfl\xb40@\x00(J\x96I\xa70@\x00\xb0\xe8m\x04\xa80@\x00p\x83m\xb2\x9f0@\x00DgSI\xb10@\x008,8M\xab0@\x00\x98\x9e*\xb2\xa90@\x00\x00\xb6\xd9a\xa80@\x00\x04\x02S\xf7\xa80@\x00\x0c\xa7\x0fB\xa90@\x00\xc0\x8d\xf4\x0b\xa60@\x00\x14\xf1\xbe\x1a\xac0@\x00\x80\xcd\xe6G\xa00@\x00Hv\xb1\xe2\xab0@\x00h)\xcd\x93\xbb0@\x00\xacaG\x93\xcf0@\x00$J\xf2\xe5v0@\x00L\x85\x0f|\xa60@\x00\xfc\\\x96\xac\xa80@\x00he\xb1\x7f\xaa0@\x00\xac\x15\xf4V\x9c0@\x00d\xfbEt\xb20@\x00\xe0^\x023\xad0@\x00\xa8\x9d\x87\x1b\x8e0@\x00\xb0\xac\x89\x18\xb90@\x000\xefR\x94\xa70@\x00\x84cE\xf9\xa50@\x00\x04!|}\xb70@\x00@\x94\xd9\x9b\xa50@\x00|\xa0\x968\xae0@\x00|\n\xdc\xea\xd80@\x00\xe8\xd5]\xb7q0@\x00\xf4>\xday\xb30@\x00\x10\x00S\xf7\xa80@\x00\x90T{\xd9\xa60@\x00\x90\x9e`\xf5\xab0@\x00\x18\xf2\x1b\x84\x900@\x008:9}\xc10@\x00xeE\xf9\xa50@\x00p\xaf`X\xad0@\x00L*\x02\n\xa90@\x00\xbc\xf7\x95Z\xa00@\x00\xf0MnV\xb00@\x00\xf8\x10\x1d\x17\xa80@\x00l\xb1*\x15\xab0@\x00\xec\xf3\xf3\x90\x990@\x000\xefR\x94\xa70@\x00\x04\xb76\xcb\x8c0@\x00Dw\xc2\x99\xf50@\x00\x08\x10z\x80\x8c0@\x00\xa4\xf77$\xa70@\x00<\xfez\xea\x9f0@\x00$\xd3`\x1e\xb00@\x00\xac4\x1d\xdd\xaa0@\x00\x1c-m\xc3\x980@\x00\xc02\xe7\x99\xa80@\x00\xd4m\xccR\xac0@\x00\x90\xf9mg\xa90@\x00\x8c\xcc\x1dX\xb70@\x00`\xc0\xf44\xaa0@\x00pe{<\xa80@\x00\x8c\xad\xf4\xd1\xa80@\x00\x84\xbeRk\xa30@\x00$\xd3`\x1e\xb00@\x00hG\xbf\t\xb30@\x00`\x82\xa2(\x8d0@\x00`\x84\x10I\xbb0@\x00x(*\xfd\x9f0@\x00\x00\xb6\xd9a\xa80@\x00 \xe2\xf4\xfa\xac0@\x00\x84cE\xf9\xa50@\x00 \xe2\xf4\xfa\xac0@\x00,\x0f\x0f\xc7\x9c0@\x00\xc0\x13\xbe\x13\x9a0@\x00\xdc1\xb2#\xbb0@\x00\x04\x02S\xf7\xa80@\x00\xec\xb7\x0f\xa5\xaa0@\x00T\x0c\xdaP\xaf0@\x00\xe8M\xa4\x99\xb20@\x00\xc4AE3\xa30@\x00<,\xdc\xb0\xdb0@\x00 \x0f\xa1\xa6n0@\x00|\x81m\xb2\x9f0@\x00$-7\x80\x960@\x00t\xdd\xe7w\xb60@\x00\x04\xa7E\x85\xab0@\x00\xb8o8\xd9\xb00@\x00H\xd1\xbeT\xa90@\x00\xa0\xe8\xd9\x8a\xac0@\x00\xfc\\\x96\xac\xa80@\x00\xa8C\xb1\xb9\xa70@\x00<\xe0\x88t\xa80@\x00\xf0k`\xcc\xa70@\x00\xf4\xb7\xd9a\xa80@\x00h\n\xa4\r\xad0@\x00dtE\\\xa70@\x00\xfc\\\x96\xac\xa80@\x00\xe8\xa9\xe8\x1b\xc70@\x00Df\x1c9\x9a0@\x00\x94&\xbev\x9b0@\x00\x10\x1f|}\xb70@\x00d\xb1`X\xad0@\x00\xc82\xb1V\xa60@\x00\x08[\x96\xac\xa80@\x00x\n8\x87\xa80@\x00\x88T\xb1\x1c\xa90@\x00\xb82\x1d\xdd\xaa0@\x000\xe2\x88t\xa80@\x00L*\x02\n\xa90@\x004;\xcc)\xa80@\x00\xf4\x98\xb0\xdb\x990@\x00\x0ck+V\xba0@\x00H\x94\xa3X\xa30@\x00(\x87\xb1E\xad0@\x00T\xee\xe7\xda\xb70@\x00\x9cpmO\x9e0@\x00\xdcm\x96\x0f\xaa0@\x00hF\x88\xf9\x9b0@\x00lV\x1d\xa3\xad0@\x00\x94\x8f\xcc\x18\xaf0@\x00@J\xf4\x7f\xa00@\x00p\nn\xca\xaa0@\x00\xc8\xb9\xb1n\xb10@\x00\xcc\xe6\x01~\xa30@\x00\xb4\xd9\xd9\'\xab0@\x00@\xb2\xcb\x11\x9d0@\x00\xfcz\x88"\xa00@\x008\x0eF\xd7\xb30@\x00\x04j*\x89\xa50@\x000i\x89\x8c\xb30@\x00(\xe2\xbe\xb7\xaa0@\x00\xa8$\x883\x990@\x00(\x0f\xe9m\xcf0@\x00\xb8\xc9\x0e;\x970@\x00\xa8C\xb1\xb9\xa70@\x00\xa8\xe8\xa3G\xaa0@\x00\x94\xea\xd9\x8a\xac0@\x00\x10[`i\xa60@\x00he\xb1\x7f\xaa0@\x00L*\x02\n\xa90@\x00\x80\xaf\xf4\xd1\xa80@\x00\\*\x96\x83\xa40@\x00\xec\\\x023\xad0@\x00\xa8\xe8\xa3G\xaa0@\x00\xacp\x01\xc9\x990@\x00\x08\xb6\xa3\x1e\xa60@\x00\x8cE\x1d@\xac0@\x00,;\x02m\xaa0@\x00\x14j\xbe\x02\xa10@\x00\xf0MnV\xb00@\x00\x10\xf3\x88\xd7\xa90@\x00\xd40\xb1V\xa60@\x00\x9c\xea\xa3G\xaa0@\x00x\xaf*\x15\xab0@\x00\xf0\xc6m>\xa50@\x00Hv\xb1\xe2\xab0@\x00\x10[`i\xa60@\x00\xd8!\x1dz\xa90@\x00\xb4\xd9\xd9\'\xab0@\x00\x0c.\x10Z\xb40@\x00\xf8\xa8E\x85\xab0@\x00\xec\x98\xe6\x1e\x9c0@\x00\xc0o\x02\x96\xae0@\x00p\xec{T\xb30@\x00\xe4\x11\x1cJ\x930@\x00(\x87\xb1E\xad0@\x00\xdc\x8c\xbf\x95\xb80@\x00x\xeb\x0e\x01\x9a0@\x00 \xc4\x02\x85\xb50@\x00\xa44S \xad0@\x00\x0cj\xf4E\xa30@\x00Hv\xb1\xe2\xab0@\x00\x88r\xa3\x92\xa00@\x00\x18\x00\x1d\xb4\xa60@\x008,8M\xab0@\x00\xb8\x8d*O\xa80@\x00t\xfb\xd9\xed\xad0@\x00\x00\xf3\xf4]\xae0@\x00\xb4\xba\xb0\xa1\x9c0@\x00|\xbe\x88\xae\xa50@\x00X\xfdEt\xb20@\x00\x18\x1e\x0f*\x9e0@\x00x(*\xfd\x9f0@\x00\xac`\x10\x83\xb80@\x00\xd8@F\x00\xb80@\x00\x84cE\xf9\xa50@\x00\x10\x98{e\xac0@\x00\xdcm\x96\x0f\xaa0@\x00\xe40E\xd0\xa10@\x000\xd1`\x1e\xb00@\x00\xfc\\\x96\xac\xa80@\x00<Y\x88\\\x9d0@\x00\x14L\xcc\x8c\xa90@\x00\\\xcf\x88\x11\xa70@\x00\xe0\xe5\x02K\xb80@\x00\xf8L\x01\x03\x970@\x00h)\xcd\x93\xbb0@\x00\x8cE\x1d@\xac0@\x00|\xfal\x9a\x940@\x00\xd8\xe58\x8e\xba0@\x00\xf4\xb7\xd9a\xa80@\x00\x88T\xb1\x1c\xa90@\x00DH*\xc3\xa20@\x00\xa44S \xad0@\x00,\xd3*\xdb\xad0@\x00\xc8\xd7\xa3\xe4\xa80@\x00\x98\xf8\x00\x14\x900@\x00\xdc\xc7lq\x900@\x00X\xcfb\xb8\xd90@\x00\xa0\xf9\x01\xe1\xa40@\x00$\x96E"\xaa0@\x00\xa44S \xad0@\x00\xa8C\xb1\xb9\xa70@\x00\x10\x00S\xf7\xa80@\x00\x90\xdb{\xf1\xb10@\x00\xdc\xe5^\xe7\x870@\x00\xfc\xe3\x96\xc4\xb30@\x00|\xdd\xb14\xb40@\x004;\xcc)\xa80@\x00\x18\xd3\xf2\xfd\x810@\x00P\x84|\xcf\xbf0@\x00\xdc\x12\x89\x9d\xac0@\x00\xb0%\x89\x00\xae0@\x00\x84cE\xf9\xa50@\x00\xe8\xa8\xb1\x0b\xb00@\x008\x0eF\xd7\xb30@\x00\xd8?\x0f\xf0\xa00@\x00\x18\x98E"\xaa0@\x00\x8c\xea\x0f\xce\xae0@\x00\xe8\xe4\x95\xf7\x9e0@\x00T*\xcc\xc6\xa60@\x00,\x1d\x10\xf7\xb20@\x00\x0c/Gj\xcb0@\x00\xcc@\xd8\xdf\x890@\x00\x04\x02S\xf7\xa80@\x00\xd0\xd7m\xa1\xa60@\x00\xbc~\x96r\xab0@\x00<\x85{\x02\xab0@\x00\x94\x9e\x86Ny0@\x00<\xff\xb1\xfa\xb60@\x00\xb0\x15\x98\xba\xcc0@\x00\xe8\xc6\xa3\x81\xa70@\x00\x94\xea\xd9\x8a\xac0@\x00\xd4"\xb0&\x900@\x00pU\x8a\xf6\xc60@\x00x\xcd\x1c\x8b\xa20@\x00\x98\xf97$\xa70@\x00\xcc\xc8\x0f\x08\xac0@\x00\xbc#\x89\x00\xae0@\x00|Uz\x0c\x920@\x00\xcc\x8c+\x1c\xbd0@\x00\x94\xad\xbe\x8e\xa60@\x00t\xbe\xbe\xf1\xa70@\x00t\xfb\xd9\xed\xad0@\x008\xef\x1cQ\xa50@\x00@,\x02\n\xa90@\x00\xb82\x1d\xdd\xaa0@\x00\xe4\x8a\x1b2\x880@\x00\x98\x81oL\xc90@\x00\xd8!\x1dz\xa90@\x00@,\x02\n\xa90@\x00\xbc\xe6m\x04\xa80@\x008J*\xc3\xa20@\x00\x9c\x08\x96\xbd\xa10@\x00p\xcdR\xce\xa40@\x004Z\xf5\xaf\xb60@\x00\x10\x00S\xf7\xa80@\x00|\xfb\xa3\xaa\xab0@\x00`e\xe7\xc2\xac0@\x00\xd8|*\xec\xa60@\x00@\x94\xd9\x9b\xa50@\x00Pv{\x9f\xa90@\x00\xbc#\x89\x00\xae0@\x00\x1c\x0f{M\xa10@\x00L\x85\x0f|\xa60@\x004x\xe7%\xae0@\x00X\x83\x0f|\xa60@\x00\x00\xf3\xf4]\xae0@\x00\xb8\xe87\xc1\xa50@\x00\xdc0{\x13\xa40@\x00\x886\xbf\xa6\xb10@\x00\xa8\x7f\x95\xa5\x960@\x00\x0cL\x02\xd0\xab0@\x00<\x1d\xa4p\xae0@\x00\x84\x088\x87\xa80@\x00\x80\n\x02D\xa60@\x00x\xaf*\x15\xab0@\x00\x04\xa7E\x85\xab0@\x00\xe8\xc6\xa3\x81\xa70@\x008,8M\xab0@\x00\xe8\xc6\xa3\x81\xa70@\x00<Y\x88\\\x9d0@\x00\x98\xe9F\xde\xc50@\x00\xa0\x9e\xf4n\xa70@\x00 Z\xbd\xd2\x8a0@\x00L\rG\xa4\xc80@\x00\x08[\x96\xac\xa80@\x00\x14\xc5\xcbt\x9e0@\x00\x8c\x909l\xc80@\x00,\xf0\xe5@\x8e0@\x00\xa4\xd9E\xae\xaf0@\x00\xb8\x8d*O\xa80@\x00\x10\xf3\x88\xd7\xa90@\x00\x80T\xe7_\xab0@\x00\xc82\xb1V\xa60@\x00\xb0\x8d`\x92\xaa0@\x00\x88\x17\x96 \xa30@\x00<;\x96\xe6\xa50@\x00\xc0\x14\xf5#\xb10@\x004;\xcc)\xa80@\x00(\xe2\xbe\xb7\xaa0@\x00\\t{\x9f\xa90@\x00\xf8\xa7\x0eu\x940@\x00\xac\xf88\xf1\xbb0@\x00Hv\xb1\xe2\xab0@\x00\x14j\xbe\x02\xa10@\x00\xd4\x8b\xbe\xc8\xa30@\x00hG\xbf\t\xb30@\x00Hv\xb1\xe2\xab0@\x00(J\x96I\xa70@\x00\x0c\x02\x1d\xb4\xa60@\x00\x9c4\x89c\xaf0@\x00\xd8|*\xec\xa60@\x00\xe0|\xf4\xa8\xa40@\x00\x84\xeaE\x11\xb10@\x00\xec0\x0f\x8d\x9f0@\x00 \xe2\xf4\xfa\xac0@\x00\x0cL\x02\xd0\xab0@\x00\x90\xf9mg\xa90@\x00\xec\xf3\xf3\x90\x990@\x00\xacp\x01\xc9\x990@\x00D\x85E\xbf\xa80@\x00\xd4\xc7\xa2\xb4\x920@\x00\xfc\x1f{\xb0\xa20@\x00\xac\x9eb\x8f\xd50@\x00\x8c\x8f\x02\\\xb10@\x00\x00\xf3\xf4]\xae0@\x00\x00l\xf4E\xa30@\x00\x04\xa7E\x85\xab0@\x00\xb4\xba\xb0\xa1\x9c0@\x00\xe4\xd6nn\xbb0@\x00\xf4\xb7\xd9a\xa80@\x00t\xbe\xbe\xf1\xa70@\x00 =\x02m\xaa0@\x00|c{<\xa80@\x00\x08\x98\xb1\xa8\xae0@\x00(\xa5\xa3\xbb\xa40@\x00\x08\xf3\xbe\x1a\xac0@\x00\xe0?\xd9\xac\x9e0@\x008J*\xc3\xa20@\x00\x8c\xcc\x1dX\xb70@\x00$\x96E"\xaa0@\x00Pv{\x9f\xa90@\x00\xec\xb7\x0f\xa5\xaa0@\x00\xb0\xe8m\x04\xa80@\x00T\xcf\xbeT\xa90@\x00\x14L\xcc\x8c\xa90@\x00\\\xcf\x88\x11\xa70@\x00x\xaf*\x15\xab0@\x00(\xe2\xbe\xb7\xaa0@\x00H9\x96\xe6\xa50@\x00<\xe0\x88t\xa80@\x00\xb4\xd9\xd9\'\xab0@\x004;\xcc)\xa80@\x00,Y\xf4\xe2\xa10@\x00\xd0\xd7m\xa1\xa60@\x00\xb8B\x0e#\x8c0@\x00,<9}\xc10@\x00d\xfbEt\xb20@\x00\x10=n\xf3\xae0@\x00@,\x02\n\xa90@\x00T\xed\xb0\xca\xa00@\x00$xS\xac\xb20@\x00\x0c\x02\x1d\xb4\xa60@\x00\xbcA{v\xa50@\x00x\xecE\x11\xb10@\x00H9\x96\xe6\xa50@\x00\x84cE\xf9\xa50@\x00\x84ES\x83\xae0@\x00\xe4N7F\x990@\x00,\xd3*\xdb\xad0@\x00\x98C\x1d@\xac0@\x00\x14j\xbe\x02\xa10@\x00\xf8/F\x9d\xb60@\x00\xa4p7\x0c\x9c0@\x00\x8c\xea\x0f\xce\xae0@\x00L\xc2*x\xac0@\x00\xfc\xe2_\xb4\x9c0@\x00<\xe0\x88t\xa80@\x00\xc8Q\xda\xdc\xb40@\x00\x00\x98\xe7\xeb\xb00@\x00@\r\xd9\x83\x9a0@\x008,8M\xab0@\x00l\x19\x02\xa7\xa70@\x00|E\x89\xc6\xb00@\x00\xb8o8\xd9\xb00@\x00\xfc\\\x96\xac\xa80@\x00\\\xcf\x88\x11\xa70@\x00l8+-\xb60@\x00\xb4o\x94u\x800@\x00\x9c\xf8\xa4w\xc00@\x00\xc8\xb9\xb1n\xb10@\x00T*\xcc\xc6\xa60@\x00\xa8C\xb1\xb9\xa70@\x00\x00\x10\xb0\xc3\x8e0@\x00\x000\x10Z\xb40@\x00\xec\\\x023\xad0@\x00\xf8k*\x89\xa50@\x00X\x1b8\xea\xa90@\x00\xd4m\xccR\xac0@\x00\xa4RE\x96\xa40@\x00\xa4\x8f`\x92\xaa0@\x00`\xa1\xcb\xae\x9b0@\x00\xe4]o\x86\xc60@\x00\xc0\x8d\xf4\x0b\xa60@\x00\xf4\xc6\x11\xa2\xd50@\x00\x90\xad\x1a+v0@\x00\xc4\x05aG\xb40@\x00\x00\xb6\xd9a\xa80@\x00Pv{\x9f\xa90@\x004;\xcc)\xa80@\x00\xd0|`/\xa90@\x00H\xd1\xbeT\xa90@\x00\x88\xccy\xf4\x860@\x00\xc4\xab\x8a\xe5\xcd0@\x00\x18\x00\x1d\xb4\xa60@\x00T*\xcc\xc6\xa60@'
tbsS'vsynccount'
p1117
I975
sS'response_time'
p1118
F-inf
sS'stage'
p1119
NsS'keylog'
p1120
(lp1121
sS'airpuffs'
p1122
g994
(g995
(I0
tS'b'
tRp1123
(I1
(L0L
tg1116
I00
S''
tbsS'trackeyepos'
p1124
I00
sS'timer'
p1125
NsS'commandrecord'
p1126
(lp1127
sS'dropped_frame_threshold'
p1128
I100
sS'rewardport'
p1129
I1
sS'airpuffline'
p1130
I1
sS'mask_logged'
p1131
I00
sS'trialcount'
p1132
I0
sS'encodervsigchannel'
p1133
I1
sS'pos'
p1134
(I-25
I0
tp1135
sS'message_color'
p1136
I-1
sS'stim_on_time'
p1137
NsS'eyetrackerip'
p1138
S'W7DT710861'
p1139
sS'stopdatetime'
p1140
S'2016-07-18 10:15:05.336000'
p1141
sS'publishing'
p1142
I00
sS'left_response_time'
p1143
F-inf
sS'laps'
p1144
g994
(g995
(I0
tS'b'
tRp1145
(I1
(L0L
tg1116
I00
S''
tbsS'last_frame'
p1146
NsS'params'
p1147
(dp1148
S'performanceip'
p1149
S'w7dtmj37pct'
p1150
sg1076
g1077
sg1101
I20
sg1096
g1097
sS'shape_thickness'
p1151
I90
sS'duration_off'
p1152
I1
sS'dot_size'
p1153
I46
sS'show_clock'
p1154
I00
sg4
I01
sg1053
I1
sg1102
I9998
sS'gray_periods'
p1155
I1
sg1059
I8
sS'eyetracker'
p1156
I01
sS'viewing_distance'
p1157
I15
sS'eyetrackerIP'
p1158
g1139
ssS'nidevice'
p1159
S'Dev1'
p1160
sS'logdir'
p1161
S'C:/Users/drewm/Documents/GitHub/psychopy-scripts'
p1162
sS'rewards'
p1163
g994
(g995
(I0
tS'b'
tRp1164
(I1
(L0L
tg1116
I00
S''
tbsg1155
I1
sS'encoder'
p1165
NsS'hide_mouse'
p1166
I01
sS'active'
p1167
I00
sS'encodervinchannel'
p1168
I0
sS'dropped_frame_count'
p1169
I1
sS'pub_port'
p1170
S'12001'
p1171
sS'terrainlog'
p1172
(lp1173
sS'airpuff'
p1174
Nsg1151
I90
sS'diport'
p1175
I0
sS'ai'
p1176
NsS'ip'
p1177
S'*'
sS'syncpulselines'
p1178
(lp1179
I3
aI4
aI5
asg1153
I46
sS'ao'
p1180
NsS'paused'
p1181
I00
sS'threaded_async'
p1182
I00
sS'show_text_time'
p1183
F-inf
sS'unpickleable'
p1184
(lp1185
S'datastream'
p1186
aS'shapes'
p1187
aS'dots'
p1188
aS'controlstream'
p1189
aS'stimuli'
p1190
asS'syncsqr'
p1191
I01
sS'wheight'
p1192
g1086
(g1087
S'\x00\x04\x00\x00'
tRp1193
sS'fps'
p1194
F60
sS'moviefilename'
p1195
Nsg1149
g1150
sS'start_datetime'
p1196
NsS'keys'
p1197
I00
sg1154
I00
sg1156
S'<aibs.Eyetracking.EyetrackerClient.Client object at 0x000000000C116390>'
p1198
sS'syncsqrsize'
p1199
(I100
I100
tp1200
sS'syncpulseport'
p1201
I1
sS'lickports'
p1202
I1
sS'backupdir'
p1203
NsS'task'
p1204
S'DetectionOfChange'
p1205
sS'responselog'
p1206
(lp1207
sS'show_stim'
p1208
I00
sS'lickSensor'
p1209
NsS'rep_port'
p1210
I12000
sS'vin'
p1211
g994
(g995
(I0
tS'b'
tRp1212
(I1
(L975L
tg1022
I00
S'\x00~\x00~\x00~\x00~\x00~\x00~\x00~\x00~\x00~\x00~\x00~\x00~\x00~\x00~\x00~\x00~\x00~\x00~\x00~\x00~\x00~\x00~\x00~\x00~\x00~\x00~\x00~\x00~\x00~\x00~\x00~\x00~\x00~\x00~\x00~\x00~\x00~\x00~\x00~\x00~\x00~\x00~\x00~\x00~\x00~\x00~\x00~\x00~\x00~\x00~\x00~\x00~\x00~\x00~\x00~\x00~\x00~\x00~\x00~\x00~\x00~\x00~\x00~\x00~\x00~\x00~\x00~\x00~\x00~\x00~\x00~\x00~\x00~\x00~\x00~\x00~\x00~\x00~\x00~\x00~\x00~\x00~\x00~\x00~\x00~\x00~\x00~\x00~\x00~\x00~\x00~\x00~\x00~\x00~\x00~\x00~\x00~\x00~\x00~\x00~\x00~\x00~\x00~\x00~\x00~\x00~\x00~\x00~\x00~\x00~\x00~\x00~\x00~\x00~\x00~\x00~\x00~\x00~\x00~\x00~\x00~\x00~\x00~\x00~\x00~\x00~\x00~\x00~\x00~\x00~\x00~\x00~\x00~\x00~\x00~\x00~\x00~\x00~\x00~\x00~\x00~\x00~\x00~\x00~\x00~\x00~\x00~\x00~\x00~\x00~\x00~\x00~\x00~\x00~\x00~\x00~\x00~\x00~\x00~\x00~\x00~\x00~\x00~\x00~\x00~\x00~\x00~\x00~\x00~\x00~\x00~\x00~\x00~\x00~\x00~\x00~\x00~\x00~\x00~\x00~\x00~\x00~\x00~\x00~\x00~\x00~\x00~\x00~\x00~\x00~\x00~\x00~\x00~\x00~\x00~\x00~\x00~\x00~\x00~\x00~\x00~\x00~\x00~\x00~\x00~\x00~\x00~\x00~\x00~\x00~\x00~\x00~\x00~\x00~\x00~\x00~\x00~\x00~\x00~\x00~\x00~\x00~\x00~\x00~\x00~\x00~\x00~\x00~\x00~\x00~\x00~\x00~\x00~\x00~\x00~\x00~\x00~\x00~\x00~\x00~\x00~\x00~\x00~\x00~\x00~\x00~\x00~\x00~\x00~\x00~\x00~\x00~\x00~\x00~\x00~\x00~\x00~\x00~\x00~\x00~\x00~\x00~\x00~\x00~\x00~\x00~\x00~\x00~\x00~\x00~\x00~\x00~\x00~\x00~\x00~\x00~\x00~\x00~\x00~\x00~\x00~\x00~\x00~\x00~\x00~\x00~\x00~\x00~\x00~\x00~\x00~\x00~\x00~\x00~\x00~\x00~\x00~\x00~\x00~\x00~\x00~\x00~\x00~\x00~\x00~\x00~\x00~\x00~\x00~\x00~\x00~\x00~\x00~\x00~\x00~\x00~\x00~\x00~\x00~\x00~\x00~\x00~\x00~\x00~\x00~\x00~\x00~\x00~\x00~\x00~\x00~\x00~\x00~\x00~\x00~\x00~\x00~\x00~\x00~\x00~\x00~\x00~\x00~\x00~\x00~\x00~\x00~\x00~\x00~\x00~\x00~\x00~\x00~\x00~\x00~\x00~\x00~\x00~\x00~\x00~\x00~\x00~\x00~\x00~\x00~\x00~\x00~\x00~\x00~\x00~\x00~\x00~\x00~\x00~\x00~\x00~\x00~\x00~\x00~\x00~\x00~\x00~\x00~\x00~\x00~\x00~\x00~\x00~\x00~\x00~\x00~\x00~\x00~\x00~\x00~\x00~\x00~\x00~\x00~\x00~\x00~\x00~\x00~\x00~\x00~\x00~\x00~\x00~\x00~\x00~\x00~\x00~\x00~\x00~\x00~\x00~\x00~\x00~\x00~\x00~\x00~\x00~\x00~\x00~\x00~\x00~\x00~\x00~\x00~\x00~\x00~\x00~\x00~\x00~\x00~\x00~\x00~\x00~\x00~\x00~\x00~\x00~\x00~\x00~\x00~\x00~\x00~\x00~\x00~\x00~\x00~\x00~\x00~\x00~\x00~\x00~\x00~\x00~\x00~\x00~\x00~\x00~\x00~\x00~\x00~\x00~\x00~\x00~\x00~\x00~\x00~\x00~\x00~\x00~\x00~\x00~\x00~\x00~\x00~\x00~\x00~\x00~\x00~\x00~\x00~\x00~\x00~\x00~\x00~\x00~\x00~\x00~\x00~\x00~\x00~\x00~\x00~\x00~\x00~\x00~\x00~\x00~\x00~\x00~\x00~\x00~\x00~\x00~\x00~\x00~\x00~\x00~\x00~\x00~\x00~\x00~\x00~\x00~\x00~\x00~\x00~\x00~\x00~\x00~\x00~\x00~\x00~\x00~\x00~\x00~\x00~\x00~\x00~\x00~\x00~\x00~\x00~\x00~\x00~\x00~\x00~\x00~\x00~\x00~\x00~\x00~\x00~\x00~\x00~\x00~\x00~\x00~\x00~\x00~\x00~\x00~\x00~\x00~\x00~\x00~\x00~\x00~\x00~\x00~\x00~\x00~\x00~\x00~\x00~\x00~\x00~\x00~\x00~\x00~\x00~\x00~\x00~\x00~\x00~\x00~\x00~\x00~\x00~\x00~\x00~\x00~\x00~\x00~\x00~\x00~\x00~\x00~\x00~\x00~\x00~\x00~\x00~\x00~\x00~\x00~\x00~\x00~\x00~\x00~\x00~\x00~\x00~\x00~\x00~\x00~\x00~\x00~\x00~\x00~\x00~\x00~\x00~\x00~\x00~\x00~\x00~\x00~\x00~\x00~\x00~\x00~\x00~\x00~\x00~\x00~\x00~\x00~\x00~\x00~\x00~\x00~\x00~\x00~\x00~\x00~\x00~\x00~\x00~\x00~\x00~\x00~\x00~\x00~\x00~\x00~\x00~\x00~\x00~\x00~\x00~\x00~\x00~\x00~\x00~\x00~\x00~\x00~\x00~\x00~\x00~\x00~\x00~\x00~\x00~\x00~\x00~\x00~\x00~\x00~\x00~\x00~\x00~\x00~\x00~\x00~\x00~\x00~\x00~\x00~\x00~\x00~\x00~\x00~\x00~\x00~\x00~\x00~\x00~\x00~\x00~\x00~\x00~\x00~\x00~\x00~\x00~\x00~\x00~\x00~\x00~\x00~\x00~\x00~\x00~\x00~\x00~\x00~\x00~\x00~\x00~\x00~\x00~\x00~\x00~\x00~\x00~\x00~\x00~\x00~\x00~\x00~\x00~\x00~\x00~\x00~\x00~\x00~\x00~\x00~\x00~\x00~\x00~\x00~\x00~\x00~\x00~\x00~\x00~\x00~\x00~\x00~\x00~\x00~\x00~\x00~\x00~\x00~\x00~\x00~\x00~\x00~\x00~\x00~\x00~\x00~\x00~\x00~\x00~\x00~\x00~\x00~\x00~\x00~\x00~\x00~\x00~\x00~\x00~\x00~\x00~\x00~\x00~\x00~\x00~\x00~\x00~\x00~\x00~\x00~\x00~\x00~\x00~\x00~\x00~\x00~\x00~\x00~\x00~\x00~\x00~\x00~\x00~\x00~\x00~\x00~\x00~\x00~\x00~\x00~\x00~\x00~\x00~\x00~\x00~\x00~\x00~\x00~\x00~\x00~\x00~\x00~\x00~\x00~\x00~\x00~\x00~\x00~\x00~\x00~\x00~\x00~\x00~\x00~\x00~\x00~\x00~\x00~\x00~\x00~\x00~\x00~\x00~\x00~\x00~\x00~\x00~\x00~\x00~\x00~\x00~\x00~\x00~\x00~\x00~\x00~\x00~\x00~\x00~\x00~\x00~\x00~\x00~\x00~\x00~\x00~\x00~\x00~\x00~\x00~\x00~\x00~\x00~\x00~\x00~\x00~\x00~\x00~\x00~\x00~\x00~\x00~\x00~\x00~\x00~\x00~\x00~\x00~\x00~\x00~\x00~\x00~\x00~\x00~\x00~\x00~\x00~\x00~\x00~\x00~\x00~\x00~\x00~\x00~\x00~\x00~\x00~\x00~\x00~\x00~\x00~\x00~\x00~\x00~\x00~\x00~\x00~\x00~\x00~\x00~\x00~\x00~\x00~\x00~\x00~\x00~\x00~\x00~\x00~\x00~\x00~\x00~\x00~\x00~\x00~\x00~\x00~\x00~\x00~\x00~\x00~\x00~\x00~\x00~\x00~\x00~\x00~\x00~\x00~\x00~\x00~\x00~\x00~\x00~\x00~\x00~\x00~\x00~\x00~\x00~\x00~\x00~\x00~\x00~\x00~\x00~\x00~\x00~\x00~\x00~\x00~\x00~\x00~\x00~\x00~\x00~\x00~\x00~\x00~\x00~\x00~'
tbsg1112
Nsg1152
I1
s.