(dp1
S'eyetrackerport'
p2
I10000
sS'sweepBit'
p3
I3
sS'random'
p4
I01
sS'stimuluslog'
p5
(lp6
(dp7
S'gray_period'
p8
I00
sS'last_frame_interval'
p9
F0
sS'time'
p10
F0.0010160915371670853
sS'frame'
p11
I0
sS'repetition'
p12
I0
sS'stimuli_type'
p13
S'motion'
p14
sS'stimuli_id'
p15
I18
sS'stimuli shown'
p16
I01
sa(dp17
g8
I00
sg9
F0
sg10
F0.013625148892970174
sg11
I1
sg12
I0
sg13
g14
sg15
I18
sg16
I01
sa(dp18
g8
I00
sg9
F0.016694805901352083
sg10
F0.030285457860372844
sg11
I2
sg12
I0
sg13
g14
sg15
I18
sg16
I01
sa(dp19
g8
I00
sg9
F0.016841916798512102
sg10
F0.047179547708765313
sg11
I3
sg12
I0
sg13
g14
sg15
I18
sg16
I01
sa(dp20
g8
I00
sg9
F0.016591600195170031
sg10
F0.063771433003239508
sg11
I4
sg12
I0
sg13
g14
sg15
I18
sg16
I01
sa(dp21
g8
I00
sg9
F0.016692240014890558
sg10
F0.080464528313314077
sg11
I5
sg12
I0
sg13
g14
sg15
I18
sg16
I01
sa(dp22
g8
I00
sg9
F0.016634935188449163
sg10
F0.097183567599131493
sg11
I6
sg12
I0
sg13
g14
sg15
I18
sg16
I01
sa(dp23
g8
I00
sg9
F0.01666971722170274
sg10
F0.11385299972243956
sg11
I7
sg12
I0
sg13
g14
sg15
I18
sg16
I01
sa(dp24
g8
I00
sg9
F0.016661164263496175
sg10
F0.13051302359053807
sg11
I8
sg12
I0
sg13
g14
sg15
I18
sg16
I01
sa(dp25
g8
I00
sg9
F0.016657743079122156
sg10
F0.14717247726184723
sg11
I9
sg12
I0
sg13
g14
sg15
I18
sg16
I01
sa(dp26
g8
I00
sg9
F0.016709631031517347
sg10
F0.16386699806571414
sg11
I10
sg12
I0
sg13
g14
sg15
I18
sg16
I01
sa(dp27
g8
I00
sg9
F0.016799722199721145
sg10
F0.18057121222227579
sg11
I11
sg12
I0
sg13
g14
sg15
I18
sg16
I01
sa(dp28
g8
I00
sg9
F0.0164681524865955
sg10
F0.19709210795645049
sg11
I12
sg12
I0
sg13
g14
sg15
I18
sg16
I01
sa(dp29
g8
I00
sg9
F0.016690529422703548
sg10
F0.21378121188627119
sg11
I13
sg12
I0
sg13
g14
sg15
I18
sg16
I01
sa(dp30
g8
I00
sg9
F0.016657743079122156
sg10
F0.23044038045827619
sg11
I14
sg12
I0
sg13
g14
sg15
I18
sg16
I01
sa(dp31
g8
I00
sg9
F0.016618114368611714
sg10
F0.24705792463009857
sg11
I15
sg12
I0
sg13
g14
sg15
I18
sg16
I01
sa(dp32
g8
I00
sg9
F0.016690244324308878
sg10
F0.26374759875670861
sg11
I16
sg12
I0
sg13
g14
sg15
I18
sg16
I01
sa(dp33
g8
I00
sg9
F0.016683116858075664
sg10
F0.28043100071317895
sg11
I17
sg12
I0
sg13
g14
sg15
I18
sg16
I01
sa(dp34
g8
I00
sg9
F0.016558528754103463
sg10
F0.29699066986268008
sg11
I18
sg12
I0
sg13
g14
sg15
I18
sg16
I01
sa(dp35
g8
I00
sg9
F0.016721320074793766
sg10
F0.31372139819268341
sg11
I19
sg12
I0
sg13
g14
sg15
I18
sg16
I01
sa(dp36
g8
I00
sg9
F0.016731583626096835
sg10
F0.33066195911851537
sg11
I20
sg12
I0
sg13
g14
sg15
I18
sg16
I01
sa(dp37
g8
I00
sg9
F0.016776344111349317
sg10
F0.3473735858397049
sg11
I21
sg12
I0
sg13
g14
sg15
I18
sg16
I01
sa(dp38
g8
I00
sg9
F0.016633509695566318
sg10
F0.36401308260610676
sg11
I22
sg12
I0
sg13
g14
sg15
I18
sg16
I01
sa(dp39
g8
I00
sg9
F0.01667171291228442
sg10
F0.38068108923653199
sg11
I23
sg12
I0
sg13
g14
sg15
I18
sg16
I01
sa(dp40
g8
I00
sg9
F0.016660308967402671
sg10
F0.39735109155753889
sg11
I24
sg12
I0
sg13
g14
sg15
I18
sg16
I01
sa(dp41
g8
I00
sg9
F0.016653181501169456
sg10
F0.41399343931061594
sg11
I25
sg12
I0
sg13
g14
sg15
I18
sg16
I01
sa(dp42
g8
I00
sg9
F0.016606995522124635
sg10
F0.43066999890015722
sg11
I26
sg12
I0
sg13
g14
sg15
I18
sg16
I01
sa(dp43
g8
I00
sg9
F0.01673899619072472
sg10
F0.44729695132627967
sg11
I27
sg12
I0
sg13
g14
sg15
I18
sg16
I01
sa(dp44
g8
I00
sg9
F0.016511202380570467
sg10
F0.46380615801626845
sg11
I28
sg12
I0
sg13
g14
sg15
I18
sg16
I01
sa(dp45
g8
I00
sg9
F0.01667114271549508
sg10
F0.48048072191522806
sg11
I29
sg12
I0
sg13
g14
sg15
I18
sg16
I01
sa(dp46
g8
I00
sg9
F0.016655177191751136
sg10
F0.49720289728611533
sg11
I30
sg12
I0
sg13
g14
sg15
I18
sg16
I01
sa(dp47
g8
I00
sg9
F0.01673044323160866
sg10
F0.51386919332526304
sg11
I31
sg12
I0
sg13
g14
sg15
I18
sg16
I01
sa(dp48
g8
I00
sg9
F0.016658598375215661
sg10
F0.5305269364043852
sg11
I32
sg12
I0
sg13
g14
sg15
I18
sg16
I01
sa(dp49
g8
I00
sg9
F0.016656602684633981
sg10
F0.5472015003033448
sg11
I33
sg12
I0
sg13
g14
sg15
I18
sg16
I01
sa(dp50
g8
I00
sg9
F0.016658598375215661
sg10
F0.56384099706974666
sg11
I34
sg12
I0
sg13
g14
sg15
I18
sg16
I01
sa(dp51
g8
I00
sg9
F0.016640637160890037
sg10
F0.58047963854096452
sg11
I35
sg12
I0
sg13
g14
sg15
I18
sg16
I01
sa(dp52
g8
I00
sg9
F0.016620965355286899
sg10
F0.59710259958683309
sg11
I36
sg12
I0
sg13
g14
sg15
I18
sg16
I01
sa(dp53
g8
I00
sg9
F0.016723315766284941
sg10
F0.61382648554899788
sg11
I37
sg12
I0
sg13
g14
sg15
I18
sg16
I01
sa(dp54
g8
I00
sg9
F0.016636075582937337
sg10
F0.63045799955398252
sg11
I38
sg12
I0
sg13
g14
sg15
I18
sg16
I01
sa(dp55
g8
I00
sg9
F0.016624386538751423
sg10
F0.64709036885506066
sg11
I39
sg12
I0
sg13
g14
sg15
I18
sg16
I01
sa(dp56
g8
I00
sg9
F0.016658598375215661
sg10
F0.66379743399829749
sg11
I40
sg12
I0
sg13
g14
sg15
I18
sg16
I01
sa(dp57
g8
I00
sg9
F0.01667142781388975
sg10
F0.68044890490818943
sg11
I41
sg12
I0
sg13
g14
sg15
I18
sg16
I01
sa(dp58
g8
I00
sg9
F0.016650615613798436
sg10
F0.69706901496738283
sg11
I42
sg12
I0
sg13
g14
sg15
I18
sg16
I01
sa(dp59
g8
I00
sg9
F0.016693380408469238
sg10
F0.71376610165862076
sg11
I43
sg12
I0
sg13
g14
sg15
I18
sg16
I01
sa(dp60
g8
I00
sg9
F0.016623246144263248
sg10
F0.73038963290127867
sg11
I44
sg12
I0
sg13
g14
sg15
I18
sg16
I01
sa(dp61
g8
I00
sg9
F0.016744983262469759
sg10
F0.74713290557156142
sg11
I45
sg12
I0
sg13
g14
sg15
I18
sg16
I01
sa(dp62
g8
I00
sg9
F0.016651185810587776
sg10
F0.76377981490259117
sg11
I46
sg12
I0
sg13
g14
sg15
I18
sg16
I01
sa(dp63
g8
I00
sg9
F0.016656887783028651
sg10
F0.78043926857390034
sg11
I47
sg12
I0
sg13
g14
sg15
I18
sg16
I01
sa(dp64
g8
I00
sg9
F0.016600438253590255
sg10
F0.79705168097007117
sg11
I48
sg12
I0
sg13
g14
sg15
I18
sg16
I01
sa(dp65
g8
I00
sg9
F0.01666658113754238
sg10
F0.81370315187996312
sg11
I49
sg12
I0
sg13
g14
sg15
I18
sg16
I01
sa(dp66
g8
I00
sg9
F0.01667199801067909
sg10
F0.83043644609733747
sg11
I50
sg12
I0
sg13
g14
sg15
I18
sg16
I01
sa(dp67
g8
I00
sg9
F0.016644343443658727
sg10
F0.84702006353199977
sg11
I51
sg12
I0
sg13
g14
sg15
I18
sg16
I01
sa(dp68
g8
I00
sg9
F0.016655747389449971
sg10
F0.86367638111732958
sg11
I52
sg12
I0
sg13
g14
sg15
I18
sg16
I01
sa(dp69
g8
I00
sg9
F0.016692240013981063
sg10
F0.88036348935656861
sg11
I53
sg12
I0
sg13
g14
sg15
I18
sg16
I01
sa(dp70
g8
I00
sg9
F0.016617829270217044
sg10
F0.89698416961346084
sg11
I54
sg12
I0
sg13
g14
sg15
I18
sg16
I01
sa(dp71
g8
I00
sg9
F0.016591315097684856
sg10
F0.91358831414891029
sg11
I55
sg12
I0
sg13
g14
sg15
I18
sg16
I01
sa(dp72
g8
I00
sg9
F0.016833934036185383
sg10
F0.93040913364802691
sg11
I56
sg12
I0
sg13
g14
sg15
I18
sg16
I01
sa(dp73
g8
I00
sg9
F0.016635220286843833
sg10
F0.94704863041442877
sg11
I57
sg12
I0
sg13
g14
sg15
I18
sg16
I01
sa(dp74
g8
I00
sg9
F0.016616688875728869
sg10
F0.96366817027683283
sg11
I58
sg12
I0
sg13
g14
sg15
I18
sg16
I01
sa(dp75
g8
I00
sg9
F0.016731013429307495
sg10
F0.98039234133830178
sg11
I59
sg12
I0
sg13
g14
sg15
I18
sg16
I01
sa(dp76
g8
I00
sg9
F0.016825951273858664
sg10
F0.99727445704411366
sg11
I60
sg12
I0
sg13
g14
sg15
I18
sg16
I01
sa(dp77
g8
I00
sg9
F0.016421396310761338
sg10
F1.0136488120797367
sg11
I61
sg12
I0
sg13
g14
sg15
I18
sg16
I00
sa(dp78
g8
I00
sg9
F0.016718183989723912
sg10
F1.0303219504858134
sg11
I62
sg12
I0
sg13
g14
sg15
I18
sg16
I00
sa(dp79
g8
I00
sg9
F0.016635220287753327
sg10
F1.0469546048852862
sg11
I63
sg12
I0
sg13
g14
sg15
I18
sg16
I00
sa(dp80
g8
I00
sg9
F0.016777769604232162
sg10
F1.0638238911515145
sg11
I64
sg12
I0
sg13
g14
sg15
I18
sg16
I00
sa(dp81
g8
I00
sg9
F0.01666201955958968
sg10
F1.0804870511055924
sg11
I65
sg12
I0
sg13
g14
sg15
I18
sg16
I00
sa(dp82
g8
I00
sg9
F0.016656317586239311
sg10
F1.0971393773106684
sg11
I66
sg12
I0
sg13
g14
sg15
I18
sg16
I00
sa(dp83
g8
I00
sg9
F0.016664300347656535
sg10
F1.1138036776583249
sg11
I67
sg12
I0
sg13
g14
sg15
I18
sg16
I00
sa(dp84
g8
I00
sg9
F0.016658313276820991
sg10
F1.1304802372478662
sg11
I68
sg12
I0
sg13
g14
sg15
I18
sg16
I00
sa(dp85
g8
I00
sg9
F0.016574779376242077
sg10
F1.1470407616925513
sg11
I69
sg12
I0
sg13
g14
sg15
I18
sg16
I00
sa(dp86
g8
I00
sg9
F0.016749544840422459
sg10
F1.1638578749088992
sg11
I70
sg12
I0
sg13
g14
sg15
I18
sg16
I00
sa(dp87
g8
I00
sg9
F0.01666544074214471
sg10
F1.1804543217822356
sg11
I71
sg12
I0
sg13
g14
sg15
I18
sg16
I00
sa(dp88
g8
I00
sg9
F0.016579911151893612
sg10
F1.1970348031309186
sg11
I72
sg12
I0
sg13
g14
sg15
I18
sg16
I00
sa(dp89
g8
I00
sg9
F0.01673072833000333
sg10
F1.2137726589271551
sg11
I73
sg12
I0
sg13
g14
sg15
I18
sg16
I00
sa(dp90
g8
I00
sg9
F0.0166691470249134
sg10
F1.230439240063788
sg11
I74
sg12
I0
sg13
g14
sg15
I18
sg16
I00
sa(dp91
g8
I00
sg9
F0.016636360681332008
sg10
F1.2470696136742845
sg11
I75
sg12
I0
sg13
g14
sg15
I18
sg16
I00
sa(dp92
g8
I00
sg9
F0.016663445052472525
sg10
F1.2637376203047097
sg11
I76
sg12
I0
sg13
g14
sg15
I18
sg16
I00
sa(dp93
g8
I00
sg9
F0.016628948116704123
sg10
F1.2803565899694149
sg11
I77
sg12
I0
sg13
g14
sg15
I18
sg16
I00
sa(dp94
g8
I00
sg9
F0.016845908178765967
sg10
F1.2972084852199259
sg11
I78
sg12
I0
sg13
g14
sg15
I18
sg16
I00
sa(dp95
g8
I00
sg9
F0.01646302071185346
sg10
F1.3136866161585203
sg11
I79
sg12
I0
sg13
g14
sg15
I18
sg16
I00
sa(dp96
g8
I00
sg9
F0.016680550969795149
sg10
F1.3304344504067558
sg11
I80
sg12
I0
sg13
g14
sg15
I18
sg16
I00
sa(dp97
g8
I00
sg9
F0.016681691365192819
sg10
F1.347034888660346
sg11
I81
sg12
I0
sg13
g14
sg15
I18
sg16
I00
sa(dp98
g8
I00
sg9
F0.016686538041540189
sg10
F1.3637202863073981
sg11
I82
sg12
I0
sg13
g14
sg15
I18
sg16
I00
sa(dp99
g8
I00
sg9
F0.016656317586239311
sg10
F1.3804170879002413
sg11
I83
sg12
I0
sg13
g14
sg15
I18
sg16
I00
sa(dp100
g8
I00
sg9
F0.01667114271549508
sg10
F1.3970545889760615
sg11
I84
sg12
I0
sg13
g14
sg15
I18
sg16
I00
sa(dp101
g8
I00
sg9
F0.016652326205075951
sg10
F1.413709481069418
sg11
I85
sg12
I0
sg13
g14
sg15
I18
sg16
I00
sa(dp102
g8
I00
sg9
F0.016660308966493176
sg10
F1.4303937383219818
sg11
I86
sg12
I0
sg13
g14
sg15
I18
sg16
I00
sa(dp103
g8
I00
sg9
F0.016674278800564934
sg10
F1.4470375115679417
sg11
I87
sg12
I0
sg13
g14
sg15
I18
sg16
I00
sa(dp104
g8
I00
sg9
F0.016659168572914496
sg10
F1.4636989609298325
sg11
I88
sg12
I0
sg13
g14
sg15
I18
sg16
I00
sa(dp105
g8
I00
sg9
F0.016659453671309166
sg10
F1.4803780864067448
sg11
I89
sg12
I0
sg13
g14
sg15
I18
sg16
I00
sa(dp106
g8
I00
sg9
F0.016671142714585585
sg10
F1.4970959852980741
sg11
I90
sg12
I0
sg13
g14
sg15
I18
sg16
I00
sa(dp107
g8
I00
sg9
F0.016610986903287994
sg10
F1.5136476716852485
sg11
I91
sg12
I0
sg13
g14
sg15
I18
sg16
I00
sa(dp108
g8
I00
sg9
F0.016674278800564934
sg10
F1.530334779923578
sg11
I92
sg12
I0
sg13
g14
sg15
I18
sg16
I00
sa(dp109
g8
I00
sg9
F0.016703643959772307
sg10
F1.5470141904997945
sg11
I93
sg12
I0
sg13
g14
sg15
I18
sg16
I00
sa(dp110
g8
I00
sg9
F0.016645483838146902
sg10
F1.5636579637457544
sg11
I94
sg12
I0
sg13
g14
sg15
I18
sg16
I00
sa(dp111
g8
I00
sg9
F0.016677699983119965
sg10
F1.5803636033961084
sg11
I95
sg12
I0
sg13
g14
sg15
I18
sg16
I00
sa(dp112
g8
I00
sg9
F0.016628377919914783
sg10
F1.5969631863536051
sg11
I96
sg12
I0
sg13
g14
sg15
I18
sg16
I00
sa(dp113
g8
I00
sg9
F0.016713907511075377
sg10
F1.6136902084017493
sg11
I97
sg12
I0
sg13
g14
sg15
I18
sg16
I00
sa(dp114
g8
I00
sg9
F0.016609276311100984
sg10
F1.6302895062608513
sg11
I98
sg12
I0
sg13
g14
sg15
I18
sg16
I00
sa(dp115
g8
I00
sg9
F0.01666230465798435
sg10
F1.6469501003266487
sg11
I99
sg12
I0
sg13
g14
sg15
I18
sg16
I00
sa(dp116
g8
I00
sg9
F0.01666544074214471
sg10
F1.6637002153638605
sg11
I100
sg12
I0
sg13
g14
sg15
I18
sg16
I00
sa(dp117
g8
I00
sg9
F0.016584187631451641
sg10
F1.6803918851810522
sg11
I101
sg12
I0
sg13
g14
sg15
I18
sg16
I00
sa(dp118
g8
I00
sg9
F0.01667342350447143
sg10
F1.6968802796709497
sg11
I102
sg12
I0
sg13
g14
sg15
I18
sg16
I00
sa(dp119
g8
I00
sg9
F0.016654036797262961
sg10
F1.7135269039035848
sg11
I103
sg12
I0
sg13
g14
sg15
I18
sg16
I00
sa(dp120
g8
I00
sg9
F0.016674848997354275
sg10
F1.730201752900939
sg11
I104
sg12
I0
sg13
g14
sg15
I18
sg16
I00
sa(dp121
g8
I00
sg9
F0.016662304657074856
sg10
F1.7468706148265483
sg11
I105
sg12
I0
sg13
g14
sg15
I18
sg16
I00
sa(dp122
g8
I00
sg9
F0.016648905021611426
sg10
F1.7635132476789295
sg11
I106
sg12
I0
sg13
g14
sg15
I18
sg16
I00
sa(dp123
g8
I00
sg9
F0.016695661198355083
sg10
F1.7802280104851889
sg11
I107
sg12
I0
sg13
g14
sg15
I18
sg16
I00
sa(dp124
g8
I00
sg9
F0.016696516493539093
sg10
F1.7969099869487763
sg11
I108
sg12
I0
sg13
g14
sg15
I18
sg16
I00
sa(dp125
g8
I00
sg9
F0.016570217798289377
sg10
F1.8134719368863443
sg11
I109
sg12
I0
sg13
g14
sg15
I18
sg16
I00
sa(dp126
g8
I00
sg9
F0.016748119346630119
sg10
F1.8302916159909728
sg11
I110
sg12
I0
sg13
g14
sg15
I18
sg16
I00
sa(dp127
g8
I00
sg9
F0.01666230465798435
sg10
F1.8468934797374459
sg11
I111
sg12
I0
sg13
g14
sg15
I18
sg16
I00
sa(dp128
g8
I00
sg9
F0.016724456159863621
sg10
F1.8636139445161461
sg11
I112
sg12
I0
sg13
g14
sg15
I18
sg16
I00
sa(dp129
g8
I00
sg9
F0.016504645112036087
sg10
F1.8801385465330895
sg11
I113
sg12
I0
sg13
g14
sg15
I18
sg16
I00
sa(dp130
g8
I00
sg9
F0.016724171061468951
sg10
F1.896840764999979
sg11
I114
sg12
I0
sg13
g14
sg15
I18
sg16
I00
sa(dp131
g8
I00
sg9
F0.016694520803866908
sg10
F1.9135372814935181
sg11
I115
sg12
I0
sg13
g14
sg15
I18
sg16
I00
sa(dp132
g8
I00
sg9
F0.016655177190841641
sg10
F1.9301904629946876
sg11
I116
sg12
I0
sg13
g14
sg15
I18
sg16
I00
sa(dp133
g8
I00
sg9
F0.016658313276820991
sg10
F1.9468504868627861
sg11
I117
sg12
I0
sg13
g14
sg15
I18
sg16
I00
sa(dp134
g8
I00
sg9
F0.01666857682812406
sg10
F1.963533318622467
sg11
I118
sg12
I0
sg13
g14
sg15
I18
sg16
I00
sa(dp135
g8
I00
sg9
F0.016626667327727773
sg10
F1.9801465863147314
sg11
I119
sg12
I0
sg13
g14
sg15
I18
sg16
I00
sa(dp136
g8
I00
sg9
F0.016695091000656248
sg10
F1.9969066798039421
sg11
I120
sg12
I0
sg13
g14
sg15
I18
sg16
I00
sa(dp137
g8
I00
sg9
F0.016666296038238215
sg10
F2.013525079271858
sg11
I121
sg12
I0
sg13
g14
sg15
I19
sg16
I01
sa(dp138
g8
I00
sg9
F0.016571643292081717
sg10
F2.0301240920325654
sg11
I122
sg12
I0
sg13
g14
sg15
I19
sg16
I01
sa(dp139
g8
I00
sg9
F0.016684827449353179
sg10
F2.0468243148079637
sg11
I123
sg12
I0
sg13
g14
sg15
I19
sg16
I01
sa(dp140
g8
I00
sg9
F0.016661734460285516
sg10
F2.0634720794350869
sg11
I124
sg12
I0
sg13
g14
sg15
I19
sg16
I01
sa(dp141
g8
I00
sg9
F0.016654606994052301
sg10
F2.0801255460355605
sg11
I125
sg12
I0
sg13
g14
sg15
I19
sg16
I01
sa(dp142
g8
I00
sg9
F0.016658028178426321
sg10
F2.0967864251997526
sg11
I126
sg12
I0
sg13
g14
sg15
I19
sg16
I01
sa(dp143
g8
I00
sg9
F0.016643488147565222
sg10
F2.1134290580512243
sg11
I127
sg12
I0
sg13
g14
sg15
I19
sg16
I01
sa(dp144
g8
I00
sg9
F0.016681121167493984
sg10
F2.1301301361236256
sg11
I128
sg12
I0
sg13
g14
sg15
I19
sg16
I01
sa(dp145
g8
I00
sg9
F0.016622675947473908
sg10
F2.1467710583829103
sg11
I129
sg12
I0
sg13
g14
sg15
I19
sg16
I01
sa(dp146
g8
I00
sg9
F0.016794020226370776
sg10
F2.1635990053482601
sg11
I130
sg12
I0
sg13
g14
sg15
I19
sg16
I01
sa(dp147
g8
I00
sg9
F0.016583902533056971
sg10
F2.1801187606879466
sg11
I131
sg12
I0
sg13
g14
sg15
I19
sg16
I01
sa(dp148
g8
I00
sg9
F0.016648334824822086
sg10
F2.1967750782741859
sg11
I132
sg12
I0
sg13
g14
sg15
I19
sg16
I01
sa(dp149
g8
I00
sg9
F0.016663730150867195
sg10
F2.2134308256627264
sg11
I133
sg12
I0
sg13
g14
sg15
I19
sg16
I01
sa(dp150
g8
I00
sg9
F0.016682546660376829
sg10
F2.2301136574224074
sg11
I134
sg12
I0
sg13
g14
sg15
I19
sg16
I01
sa(dp151
g8
I00
sg9
F0.016631228905680473
sg10
F2.2467534392872039
sg11
I135
sg12
I0
sg13
g14
sg15
I19
sg16
I01
sa(dp152
g8
I00
sg9
F0.01667085761710041
sg10
F2.2634074760844669
sg11
I136
sg12
I0
sg13
g14
sg15
I19
sg16
I01
sa(dp153
g8
I00
sg9
F0.016685682745446684
sg10
F2.2801593017138657
sg11
I137
sg12
I0
sg13
g14
sg15
I19
sg16
I01
sa(dp154
g8
I00
sg9
F0.016695661198355083
sg10
F2.2967908157188504
sg11
I138
sg12
I0
sg13
g14
sg15
I19
sg16
I01
sa(dp155
g8
I00
sg9
F0.016437646931990457
sg10
F2.3130956066870567
sg11
I139
sg12
I0
sg13
g14
sg15
I19
sg16
I01
sa(dp156
g8
I00
sg9
F0.016766935857049248
sg10
F2.3299061626348703
sg11
I140
sg12
I0
sg13
g14
sg15
I19
sg16
I01
sa(dp157
g8
I00
sg9
F0.016637786175124347
sg10
F2.346503179704996
sg11
I141
sg12
I0
sg13
g14
sg15
I19
sg16
I01
sa(dp158
g8
I00
sg9
F0.01666258975637902
sg10
F2.3631597823905395
sg11
I142
sg12
I0
sg13
g14
sg15
I19
sg16
I01
sa(dp159
g8
I00
sg9
F0.016656032486935146
sg10
F2.3798314953028239
sg11
I143
sg12
I0
sg13
g14
sg15
I19
sg16
I01
sa(dp160
g8
I00
sg9
F0.016649190120915591
sg10
F2.3964655751951796
sg11
I144
sg12
I0
sg13
g14
sg15
I19
sg16
I01
sa(dp161
g8
I00
sg9
F0.016592170392868866
sg10
F2.4130568902928644
sg11
I145
sg12
I0
sg13
g14
sg15
I19
sg16
I01
sa(dp162
g8
I00
sg9
F0.016919748725740646
sg10
F2.4299772092153944
sg11
I146
sg12
I0
sg13
g14
sg15
I19
sg16
I01
sa(dp163
g8
I00
sg9
F0.016498087843501708
sg10
F2.4464750119605014
sg11
I147
sg12
I0
sg13
g14
sg15
I19
sg16
I01
sa(dp164
g8
I00
sg9
F0.016652611303470621
sg10
F2.4631299040529484
sg11
I148
sg12
I0
sg13
g14
sg15
I19
sg16
I01
sa(dp165
g8
I00
sg9
F0.016660879164192011
sg10
F2.479874602216114
sg11
I149
sg12
I0
sg13
g14
sg15
I19
sg16
I01
sa(dp166
g8
I00
sg9
F0.016660023869008
sg10
F2.496492431486331
sg11
I150
sg12
I0
sg13
g14
sg15
I19
sg16
I01
sa(dp167
g8
I00
sg9
F0.016650045416099601
sg10
F2.5131156776315038
sg11
I151
sg12
I0
sg13
g14
sg15
I19
sg16
I01
sa(dp168
g8
I00
sg9
F0.01666515564375004
sg10
F2.5297851097548119
sg11
I152
sg12
I0
sg13
g14
sg15
I19
sg16
I01
sa(dp169
g8
I00
sg9
F0.016662019558680186
sg10
F2.5464362955653996
sg11
I153
sg12
I0
sg13
g14
sg15
I19
sg16
I01
sa(dp170
g8
I00
sg9
F0.016663445052472525
sg10
F2.5631023065052432
sg11
I154
sg12
I0
sg13
g14
sg15
I19
sg16
I01
sa(dp171
g8
I00
sg9
F0.016660879164192011
sg10
F2.5797828574750383
sg11
I155
sg12
I0
sg13
g14
sg15
I19
sg16
I01
sa(dp172
g8
I00
sg9
F0.016658598375215661
sg10
F2.5964083844091874
sg11
I156
sg12
I0
sg13
g14
sg15
I19
sg16
I01
sa(dp173
g8
I00
sg9
F0.01666658113754238
sg10
F2.613075250644215
sg11
I157
sg12
I0
sg13
g14
sg15
I19
sg16
I01
sa(dp174
g8
I00
sg9
F0.016656887783028651
sg10
F2.6297443976691284
sg11
I158
sg12
I0
sg13
g14
sg15
I19
sg16
I01
sa(dp175
g8
I00
sg9
F0.016661164263496175
sg10
F2.6464049917349257
sg11
I159
sg12
I0
sg13
g14
sg15
I19
sg16
I01
sa(dp176
g8
I00
sg9
F0.01667142781388975
sg10
F2.6631208949365828
sg11
I160
sg12
I0
sg13
g14
sg15
I19
sg16
I01
sa(dp177
g8
I00
sg9
F0.016652611303470621
sg10
F2.6797318818389613
sg11
I161
sg12
I0
sg13
g14
sg15
I19
sg16
I01
sa(dp178
g8
I00
sg9
F0.01660528493084712
sg10
F2.6963231969366461
sg11
I162
sg12
I0
sg13
g14
sg15
I19
sg16
I01
sa(dp179
g8
I00
sg9
F0.016625812031634268
sg10
F2.712960127815677
sg11
I163
sg12
I0
sg13
g14
sg15
I19
sg16
I01
sa(dp180
g8
I00
sg9
F0.016645198739752232
sg10
F2.7295346220935244
sg11
I164
sg12
I0
sg13
g14
sg15
I19
sg16
I01
sa(dp181
g8
I00
sg9
F0.016765795462561073
sg10
F2.7463602882689884
sg11
I165
sg12
I0
sg13
g14
sg15
I19
sg16
I01
sa(dp182
g8
I00
sg9
F0.016659453670399671
sg10
F2.7630223078276686
sg11
I166
sg12
I0
sg13
g14
sg15
I19
sg16
I01
sa(dp183
g8
I00
sg9
F0.016660594065797341
sg10
F2.7797824013177888
sg11
I167
sg12
I0
sg13
g14
sg15
I19
sg16
I01
sa(dp184
g8
I00
sg9
F0.016659453671309166
sg10
F2.7963406449734975
sg11
I168
sg12
I0
sg13
g14
sg15
I19
sg16
I01
sa(dp185
g8
I00
sg9
F0.01666258975637902
sg10
F2.8130026645321777
sg11
I169
sg12
I0
sg13
g14
sg15
I19
sg16
I01
sa(dp186
g8
I00
sg9
F0.016656317586239311
sg10
F2.829722274015694
sg11
I170
sg12
I0
sg13
g14
sg15
I19
sg16
I01
sa(dp187
g8
I00
sg9
F0.016668576827214565
sg10
F2.8463281291433304
sg11
I171
sg12
I0
sg13
g14
sg15
I19
sg16
I01
sa(dp188
g8
I00
sg9
F0.016658598375215661
sg10
F2.8629858722224526
sg11
I172
sg12
I0
sg13
g14
sg15
I19
sg16
I01
sa(dp189
g8
I00
sg9
F0.016663445052472525
sg10
F2.8796783973357378
sg11
I173
sg12
I0
sg13
g14
sg15
I19
sg16
I01
sa(dp190
g8
I00
sg9
F0.01666287485477369
sg10
F2.8963113368336053
sg11
I174
sg12
I0
sg13
g14
sg15
I19
sg16
I01
sa(dp191
g8
I00
sg9
F0.016541137737476674
sg10
F2.9128644487136626
sg11
I175
sg12
I0
sg13
g14
sg15
I19
sg16
I01
sa(dp192
g8
I00
sg9
F0.016774633520071802
sg10
F2.9296459246006634
sg11
I176
sg12
I0
sg13
g14
sg15
I19
sg16
I01
sa(dp193
g8
I00
sg9
F0.01666487054535537
sg10
F2.9463011017924146
sg11
I177
sg12
I0
sg13
g14
sg15
I19
sg16
I01
sa(dp194
g8
I00
sg9
F0.016659738769703836
sg10
F2.9629545683919787
sg11
I178
sg12
I0
sg13
g14
sg15
I19
sg16
I01
sa(dp195
g8
I00
sg9
F0.01666258975637902
sg10
F2.9796274216996608
sg11
I179
sg12
I0
sg13
g14
sg15
I19
sg16
I01
sa(dp196
g8
I00
sg9
F0.016666866235027555
sg10
F2.9963282146727579
sg11
I180
sg12
I0
sg13
g14
sg15
I19
sg16
I01
sa(dp197
g8
I00
sg9
F0.016659738769703836
sg10
F3.012948609830346
sg11
I181
sg12
I0
sg13
g14
sg15
I19
sg16
I00
sa(dp198
g8
I00
sg9
F0.016676844687935954
sg10
F3.0295855407093768
sg11
I182
sg12
I0
sg13
g14
sg15
I19
sg16
I00
sa(dp199
g8
I00
sg9
F0.016638926569612522
sg10
F3.0462270331672698
sg11
I183
sg12
I0
sg13
g14
sg15
I19
sg16
I00
sa(dp200
g8
I00
sg9
F0.016794305325674941
sg10
F3.0631336673550322
sg11
I184
sg12
I0
sg13
g14
sg15
I19
sg16
I00
sa(dp201
g8
I00
sg9
F0.01667085761710041
sg10
F3.0798039547744338
sg11
I185
sg12
I0
sg13
g14
sg15
I19
sg16
I00
sa(dp202
g8
I00
sg9
F0.016656032487844641
sg10
F3.0964625531496495
sg11
I186
sg12
I0
sg13
g14
sg15
I19
sg16
I00
sa(dp203
g8
I00
sg9
F0.016658028177516826
sg10
F3.1131331256674457
sg11
I187
sg12
I0
sg13
g14
sg15
I19
sg16
I00
sa(dp204
g8
I00
sg9
F0.016656317586239311
sg10
F3.1297763287166163
sg11
I188
sg12
I0
sg13
g14
sg15
I19
sg16
I00
sa(dp205
g8
I00
sg9
F0.01666886192651873
sg10
F3.1464449055438308
sg11
I189
sg12
I0
sg13
g14
sg15
I19
sg16
I00
sa(dp206
g8
I00
sg9
F0.01666572584053938
sg10
F3.1631813358471845
sg11
I190
sg12
I0
sg13
g14
sg15
I19
sg16
I00
sa(dp207
g8
I00
sg9
F0.016658883474519826
sg10
F3.1797706552533782
sg11
I191
sg12
I0
sg13
g14
sg15
I19
sg16
I00
sa(dp208
g8
I00
sg9
F0.016652611303470621
sg10
F3.196423551656153
sg11
I192
sg12
I0
sg13
g14
sg15
I19
sg16
I00
sa(dp209
g8
I00
sg9
F0.016612982593869674
sg10
F3.213032827967254
sg11
I193
sg12
I0
sg13
g14
sg15
I19
sg16
I00
sa(dp210
g8
I00
sg9
F0.016713052214981872
sg10
F3.2297478758728175
sg11
I194
sg12
I0
sg13
g14
sg15
I19
sg16
I00
sa(dp211
g8
I00
sg9
F0.016655177190841641
sg10
F3.2464064742480332
sg11
I195
sg12
I0
sg13
g14
sg15
I19
sg16
I00
sa(dp212
g8
I00
sg9
F0.0166645854469607
sg10
F3.2631009950519001
sg11
I196
sg12
I0
sg13
g14
sg15
I19
sg16
I00
sa(dp213
g8
I00
sg9
F0.016616973974123539
sg10
F3.2796943058392571
sg11
I197
sg12
I0
sg13
g14
sg15
I19
sg16
I00
sa(dp214
g8
I00
sg9
F0.016716473398446396
sg10
F3.2963965243061466
sg11
I198
sg12
I0
sg13
g14
sg15
I19
sg16
I00
sa(dp215
g8
I00
sg9
F0.016658028178426321
sg10
F3.3130565481742451
sg11
I199
sg12
I0
sg13
g14
sg15
I19
sg16
I00
sa(dp216
g8
I00
sg9
F0.016579055855800107
sg10
F3.3297194230290188
sg11
I200
sg12
I0
sg13
g14
sg15
I19
sg16
I00
sa(dp217
g8
I00
sg9
F0.016739851486818225
sg10
F3.346381442587699
sg11
I201
sg12
I0
sg13
g14
sg15
I19
sg16
I00
sa(dp218
g8
I00
sg9
F0.016658598375215661
sg10
F3.363046598231449
sg11
I202
sg12
I0
sg13
g14
sg15
I19
sg16
I00
sa(dp219
g8
I00
sg9
F0.016658028177516826
sg10
F3.379700635028712
sg11
I203
sg12
I0
sg13
g14
sg15
I19
sg16
I00
sa(dp220
g8
I00
sg9
F0.01667142781388975
sg10
F3.3963652204756727
sg11
I204
sg12
I0
sg13
g14
sg15
I19
sg16
I00
sa(dp221
g8
I00
sg9
F0.016657743079122156
sg10
F3.4130243890476777
sg11
I205
sg12
I0
sg13
g14
sg15
I19
sg16
I00
sa(dp222
g8
I00
sg9
F0.01666258975637902
sg10
F3.4296858384095685
sg11
I206
sg12
I0
sg13
g14
sg15
I19
sg16
I00
sa(dp223
g8
I00
sg9
F0.016648905021611426
sg10
F3.4463378795162498
sg11
I207
sg12
I0
sg13
g14
sg15
I19
sg16
I00
sa(dp224
g8
I00
sg9
F0.01666258975637902
sg10
F3.463001609667117
sg11
I208
sg12
I0
sg13
g14
sg15
I19
sg16
I00
sa(dp225
g8
I00
sg9
F0.016664015249261865
sg10
F3.4796633441274025
sg11
I209
sg12
I0
sg13
g14
sg15
I19
sg16
I00
sa(dp226
g8
I00
sg9
F0.016658883474519826
sg10
F3.4963932171613124
sg11
I210
sg12
I0
sg13
g14
sg15
I19
sg16
I00
sa(dp227
g8
I00
sg9
F0.016663159953168361
sg10
F3.5129831067652049
sg11
I211
sg12
I0
sg13
g14
sg15
I19
sg16
I00
sa(dp228
g8
I00
sg9
F0.016656602684633981
sg10
F3.5296391392530495
sg11
I212
sg12
I0
sg13
g14
sg15
I19
sg16
I00
sa(dp229
g8
I00
sg9
F0.016679125476912304
sg10
F3.5463216859134263
sg11
I213
sg12
I0
sg13
g14
sg15
I19
sg16
I00
sa(dp230
g8
I00
sg9
F0.016663445052472525
sg10
F3.5629982455029676
sg11
I214
sg12
I0
sg13
g14
sg15
I19
sg16
I00
sa(dp231
g8
I00
sg9
F0.016657743079122156
sg10
F3.5796357465796973
sg11
I215
sg12
I0
sg13
g14
sg15
I19
sg16
I00
sa(dp232
g8
I00
sg9
F0.016654606994052301
sg10
F3.5963094551825634
sg11
I216
sg12
I0
sg13
g14
sg15
I19
sg16
I00
sa(dp233
g8
I00
sg9
F0.016652041106681281
sg10
F3.6129458158638954
sg11
I217
sg12
I0
sg13
g14
sg15
I19
sg16
I00
sa(dp234
g8
I00
sg9
F0.01666658113754238
sg10
F3.6296143926920195
sg11
I218
sg12
I0
sg13
g14
sg15
I19
sg16
I00
sa(dp235
g8
I00
sg9
F0.016653751697958796
sg10
F3.6462692847844664
sg11
I219
sg12
I0
sg13
g14
sg15
I19
sg16
I00
sa(dp236
g8
I00
sg9
F0.016654036797262961
sg10
F3.6629857581829128
sg11
I220
sg12
I0
sg13
g14
sg15
I19
sg16
I00
sa(dp237
g8
I00
sg9
F0.016630658708891133
sg10
F3.6796101447216643
sg11
I221
sg12
I0
sg13
g14
sg15
I19
sg16
I00
sa(dp238
g8
I00
sg9
F0.016650330515403766
sg10
F3.69620716179179
sg11
I222
sg12
I0
sg13
g14
sg15
I19
sg16
I00
sa(dp239
g8
I00
sg9
F0.016637215977425512
sg10
F3.71283839069838
sg11
I223
sg12
I0
sg13
g14
sg15
I19
sg16
I00
sa(dp240
g8
I00
sg9
F0.016703929058166977
sg10
F3.7295428899542458
sg11
I224
sg12
I0
sg13
g14
sg15
I19
sg16
I00
sa(dp241
g8
I00
sg9
F0.016630373610496463
sg10
F3.7461769698466014
sg11
I225
sg12
I0
sg13
g14
sg15
I19
sg16
I00
sa(dp242
g8
I00
sg9
F0.0166691470249134
sg10
F3.7628418403919568
sg11
I226
sg12
I0
sg13
g14
sg15
I19
sg16
I00
sa(dp243
g8
I00
sg9
F0.016656887783028651
sg10
F3.7794955920899156
sg11
I227
sg12
I0
sg13
g14
sg15
I19
sg16
I00
sa(dp244
g8
I00
sg9
F0.016652611304380116
sg10
F3.7961598924384816
sg11
I228
sg12
I0
sg13
g14
sg15
I19
sg16
I00
sa(dp245
g8
I00
sg9
F0.016662019558680186
sg10
F3.8128130739396511
sg11
I229
sg12
I0
sg13
g14
sg15
I19
sg16
I00
sa(dp246
g8
I00
sg9
F0.016690244324308878
sg10
F3.8296039580818615
sg11
I230
sg12
I0
sg13
g14
sg15
I19
sg16
I00
sa(dp247
g8
I00
sg9
F0.016692810210770404
sg10
F3.8462009751519872
sg11
I231
sg12
I0
sg13
g14
sg15
I19
sg16
I00
sa(dp248
g8
I00
sg9
F0.016545129118640034
sg10
F3.8627421128885544
sg11
I232
sg12
I0
sg13
g14
sg15
I19
sg16
I00
sa(dp249
g8
I00
sg9
F0.016787462958745891
sg10
F3.8795301460449991
sg11
I233
sg12
I0
sg13
g14
sg15
I19
sg16
I00
sa(dp250
g8
I00
sg9
F0.016657743079122156
sg10
F3.8961873189273319
sg11
I234
sg12
I0
sg13
g14
sg15
I19
sg16
I00
sa(dp251
g8
I00
sg9
F0.016665440743054205
sg10
F3.9128627381214756
sg11
I235
sg12
I0
sg13
g14
sg15
I19
sg16
I00
sa(dp252
g8
I00
sg9
F0.016660308966493176
sg10
F3.929513353735274
sg11
I236
sg12
I0
sg13
g14
sg15
I19
sg16
I00
sa(dp253
g8
I00
sg9
F0.016469292881083675
sg10
F3.9459809360250802
sg11
I237
sg12
I0
sg13
g14
sg15
I19
sg16
I00
sa(dp254
g8
I00
sg9
F0.016844767784277792
sg10
F3.9628402438393096
sg11
I238
sg12
I0
sg13
g14
sg15
I19
sg16
I00
sa(dp255
g8
I00
sg9
F0.016662874855683185
sg10
F3.9794894339593156
sg11
I239
sg12
I0
sg13
g14
sg15
I19
sg16
I00
sa(dp256
g8
I00
sg9
F0.016664015249261865
sg10
F3.996219306994135
sg11
I240
sg12
I0
sg13
g14
sg15
I19
sg16
I00
sa(dp257
g8
I00
sg9
F0.016601293548774265
sg10
F4.0127732741702857
sg11
I241
sg12
I0
sg13
g14
sg15
I14
sg16
I01
sa(dp258
g8
I00
sg9
F0.016711911820493697
sg10
F4.0295188276286353
sg11
I242
sg12
I0
sg13
g14
sg15
I14
sg16
I01
sa(dp259
g8
I00
sg9
F0.016670002321006905
sg10
F4.0461996636977346
sg11
I243
sg12
I0
sg13
g14
sg15
I14
sg16
I01
sa(dp260
g8
I00
sg9
F0.016650330514494271
sg10
F4.0628460028319751
sg11
I244
sg12
I0
sg13
g14
sg15
I14
sg16
I01
sa(dp261
g8
I00
sg9
F0.016663445052472525
sg10
F4.079502605516609
sg11
I245
sg12
I0
sg13
g14
sg15
I14
sg16
I01
sa(dp262
g8
I00
sg9
F0.01666743643272639
sg10
F4.0961797353029397
sg11
I246
sg12
I0
sg13
g14
sg15
I14
sg16
I01
sa(dp263
g8
I00
sg9
F0.016619824960798724
sg10
F4.1128098238150415
sg11
I247
sg12
I0
sg13
g14
sg15
I14
sg16
I01
sa(dp264
g8
I00
sg9
F0.016711341622794862
sg10
F4.1295191697472546
sg11
I248
sg12
I0
sg13
g14
sg15
I14
sg16
I01
sa(dp265
g8
I00
sg9
F0.016657457980727486
sg10
F4.1461743469390058
sg11
I249
sg12
I0
sg13
g14
sg15
I14
sg16
I01
sa(dp266
g8
I00
sg9
F0.016652896402774786
sg10
F4.1628931011264285
sg11
I250
sg12
I0
sg13
g14
sg15
I14
sg16
I01
sa(dp267
g8
I00
sg9
F0.016657457980727486
sg10
F4.1794789993491577
sg11
I251
sg12
I0
sg13
g14
sg15
I14
sg16
I01
sa(dp268
g8
I00
sg9
F0.01666515564375004
sg10
F4.1961375977252828
sg11
I252
sg12
I0
sg13
g14
sg15
I14
sg16
I01
sa(dp269
g8
I00
sg9
F0.01666487054535537
sg10
F4.2128050341580092
sg11
I253
sg12
I0
sg13
g14
sg15
I14
sg16
I01
sa(dp270
g8
I00
sg9
F0.016657172882332816
sg10
F4.2294656282238066
sg11
I254
sg12
I0
sg13
g14
sg15
I14
sg16
I01
sa(dp271
g8
I00
sg9
F0.016607850818218139
sg10
F4.2460660664773968
sg11
I255
sg12
I0
sg13
g14
sg15
I14
sg16
I01
sa(dp272
g8
I00
sg9
F0.016714477707864717
sg10
F4.2627836802703314
sg11
I256
sg12
I0
sg13
g14
sg15
I14
sg16
I01
sa(dp273
g8
I00
sg9
F0.016660023868098506
sg10
F4.2794414233494535
sg11
I257
sg12
I0
sg13
g14
sg15
I14
sg16
I01
sa(dp274
g8
I00
sg9
F0.016664300347656535
sg10
F4.2961082895853906
sg11
I258
sg12
I0
sg13
g14
sg15
I14
sg16
I01
sa(dp275
g8
I00
sg9
F0.016656032487844641
sg10
F4.3127728750314418
sg11
I259
sg12
I0
sg13
g14
sg15
I14
sg16
I01
sa(dp276
g8
I00
sg9
F0.016518900043593021
sg10
F4.329191420355528
sg11
I260
sg12
I0
sg13
g14
sg15
I14
sg16
I01
sa(dp277
g8
I00
sg9
F0.01666886192651873
sg10
F4.3458160919935835
sg11
I261
sg12
I0
sg13
g14
sg15
I14
sg16
I01
sa(dp278
g8
I00
sg9
F0.016649190120006097
sg10
F4.3624638566207068
sg11
I262
sg12
I0
sg13
g14
sg15
I14
sg16
I01
sa(dp279
g8
I00
sg9
F0.016670002321006905
sg10
F4.3791358546313859
sg11
I263
sg12
I0
sg13
g14
sg15
I14
sg16
I01
sa(dp280
g8
I00
sg9
F0.01659958295749675
sg10
F4.3957391438716513
sg11
I264
sg12
I0
sg13
g14
sg15
I14
sg16
I01
sa(dp281
g8
I00
sg9
F0.016684542350958509
sg10
F4.4124176991517743
sg11
I265
sg12
I0
sg13
g14
sg15
I14
sg16
I01
sa(dp282
g8
I00
sg9
F0.016705069453564647
sg10
F4.4291213431115466
sg11
I266
sg12
I0
sg13
g14
sg15
I14
sg16
I01
sa(dp283
g8
I00
sg9
F0.016655747388540476
sg10
F4.4457805116835516
sg11
I267
sg12
I0
sg13
g14
sg15
I14
sg16
I01
sa(dp284
g8
I00
sg9
F0.016657457980727486
sg10
F4.4624376845658844
sg11
I268
sg12
I0
sg13
g14
sg15
I14
sg16
I01
sa(dp285
g8
I00
sg9
F0.01666515564375004
sg10
F4.4791031253080291
sg11
I269
sg12
I0
sg13
g14
sg15
I14
sg16
I01
sa(dp286
g8
I00
sg9
F0.016654606994961796
sg10
F4.4958033480843369
sg11
I270
sg12
I0
sg13
g14
sg15
I14
sg16
I01
sa(dp287
g8
I00
sg9
F0.016573068784055067
sg10
F4.5123424901312319
sg11
I271
sg12
I0
sg13
g14
sg15
I14
sg16
I01
sa(dp288
g8
I00
sg9
F0.016750685234910634
sg10
F4.5290823416180501
sg11
I272
sg12
I0
sg13
g14
sg15
I14
sg16
I01
sa(dp289
g8
I00
sg9
F0.016662304657074856
sg10
F4.5457443611767303
sg11
I273
sg12
I0
sg13
g14
sg15
I14
sg16
I01
sa(dp290
g8
I00
sg9
F0.016659453671309166
sg10
F4.5624001085661803
sg11
I274
sg12
I0
sg13
g14
sg15
I14
sg16
I01
sa(dp291
g8
I00
sg9
F0.016660879164192011
sg10
F4.579061272828767
sg11
I275
sg12
I0
sg13
g14
sg15
I14
sg16
I01
sa(dp292
g8
I00
sg9
F0.01666287485477369
sg10
F4.595723862585146
sg11
I276
sg12
I0
sg13
g14
sg15
I14
sg16
I01
sa(dp293
g8
I00
sg9
F0.016658028178426321
sg10
F4.6123858821438262
sg11
I277
sg12
I0
sg13
g14
sg15
I14
sg16
I01
sa(dp294
g8
I00
sg9
F0.016666296038238215
sg10
F4.6290507526891815
sg11
I278
sg12
I0
sg13
g14
sg15
I14
sg16
I01
sa(dp295
g8
I00
sg9
F0.016614122988357849
sg10
F4.6456631650853524
sg11
I279
sg12
I0
sg13
g14
sg15
I14
sg16
I01
sa(dp296
g8
I00
sg9
F0.016709060833818512
sg10
F4.662414705615447
sg11
I280
sg12
I0
sg13
g14
sg15
I14
sg16
I01
sa(dp297
g8
I00
sg9
F0.016640637160890037
sg10
F4.6790114375871781
sg11
I281
sg12
I0
sg13
g14
sg15
I14
sg16
I01
sa(dp298
g8
I00
sg9
F0.016678555280122964
sg10
F4.6956891375712075
sg11
I282
sg12
I0
sg13
g14
sg15
I14
sg16
I01
sa(dp299
g8
I00
sg9
F0.016646909331029747
sg10
F4.7123383276912136
sg11
I283
sg12
I0
sg13
g14
sg15
I14
sg16
I01
sa(dp300
g8
I00
sg9
F0.016679980773005809
sg10
F4.7290160276752431
sg11
I284
sg12
I0
sg13
g14
sg15
I14
sg16
I01
sa(dp301
g8
I00
sg9
F0.016630943807285803
sg10
F4.7456489671731106
sg11
I285
sg12
I0
sg13
g14
sg15
I14
sg16
I01
sa(dp302
g8
I00
sg9
F0.016681976463587489
sg10
F4.7623312287350927
sg11
I286
sg12
I0
sg13
g14
sg15
I14
sg16
I01
sa(dp303
g8
I00
sg9
F0.01666230465798435
sg10
F4.7789906824064019
sg11
I287
sg12
I0
sg13
g14
sg15
I14
sg16
I01
sa(dp304
g8
I00
sg9
F0.016583902532147476
sg10
F4.7955780061229234
sg11
I288
sg12
I0
sg13
g14
sg15
I14
sg16
I01
sa(dp305
g8
I00
sg9
F0.016741847177399904
sg10
F4.812320138398718
sg11
I289
sg12
I0
sg13
g14
sg15
I14
sg16
I01
sa(dp306
g8
I00
sg9
F0.016659738769703836
sg10
F4.8290223568646979
sg11
I290
sg12
I0
sg13
g14
sg15
I14
sg16
I01
sa(dp307
g8
I00
sg9
F0.016666010939843545
sg10
F4.8456456030098707
sg11
I291
sg12
I0
sg13
g14
sg15
I14
sg16
I01
sa(dp308
g8
I00
sg9
F0.016564800924243173
sg10
F4.8622089784403215
sg11
I292
sg12
I0
sg13
g14
sg15
I14
sg16
I01
sa(dp309
g8
I00
sg9
F0.016747834248235449
sg10
F4.8789613742665097
sg11
I293
sg12
I0
sg13
g14
sg15
I14
sg16
I01
sa(dp310
g8
I00
sg9
F0.016670857616190915
sg10
F4.8956285256008414
sg11
I294
sg12
I0
sg13
g14
sg15
I14
sg16
I01
sa(dp311
g8
I00
sg9
F0.016586468420427991
sg10
F4.9122132834299919
sg11
I295
sg12
I0
sg13
g14
sg15
I14
sg16
I01
sa(dp312
g8
I00
sg9
F0.016728447541026981
sg10
F4.9289425862671123
sg11
I296
sg12
I0
sg13
g14
sg15
I14
sg16
I01
sa(dp313
g8
I00
sg9
F0.016624671638055588
sg10
F4.9455675430026531
sg11
I297
sg12
I0
sg13
g14
sg15
I14
sg16
I01
sa(dp314
g8
I00
sg9
F0.01667427879965544
sg10
F4.9622446727898932
sg11
I298
sg12
I0
sg13
g14
sg15
I14
sg16
I01
sa(dp315
g8
I00
sg9
F0.0168701415632313
sg10
F4.9791142441554257
sg11
I299
sg12
I0
sg13
g14
sg15
I14
sg16
I01
sa(dp316
g8
I00
sg9
F0.016481552122968424
sg10
F4.9956394163691584
sg11
I300
sg12
I0
sg13
g14
sg15
I14
sg16
I01
sa(dp317
g8
I00
sg9
F0.016651185810587776
sg10
F5.0122512585685399
sg11
I301
sg12
I0
sg13
g14
sg15
I14
sg16
I00
sa(dp318
g8
I00
sg9
F0.016552826781662588
sg10
F5.028774435091691
sg11
I302
sg12
I0
sg13
g14
sg15
I14
sg16
I00
sa(dp319
g8
I00
sg9
F0.016771212335697783
sg10
F5.0455373795675769
sg11
I303
sg12
I0
sg13
g14
sg15
I14
sg16
I00
sa(dp320
g8
I00
sg9
F0.016660308967402671
sg10
F5.0622002544223506
sg11
I304
sg12
I0
sg13
g14
sg15
I14
sg16
I00
sa(dp321
g8
I00
sg9
F0.01680029239741998
sg10
F5.0791131607802527
sg11
I305
sg12
I0
sg13
g14
sg15
I14
sg16
I00
sa(dp322
g8
I00
sg9
F0.016660594065797341
sg10
F5.0957760356350263
sg11
I306
sg12
I0
sg13
g14
sg15
I14
sg16
I00
sa(dp323
g8
I00
sg9
F0.016649190120006097
sg10
F5.1124206641770797
sg11
I307
sg12
I0
sg13
g14
sg15
I14
sg16
I00
sa(dp324
g8
I00
sg9
F0.01666971722170274
sg10
F5.1290900963003878
sg11
I308
sg12
I0
sg13
g14
sg15
I14
sg16
I00
sa(dp325
g8
I00
sg9
F0.016668291728819895
sg10
F5.1457632347064646
sg11
I309
sg12
I0
sg13
g14
sg15
I14
sg16
I00
sa(dp326
g8
I00
sg9
F0.016576204870034417
sg10
F5.1624258244628436
sg11
I310
sg12
I0
sg13
g14
sg15
I14
sg16
I00
sa(dp327
g8
I00
sg9
F0.016684827449353179
sg10
F5.1790236968281533
sg11
I311
sg12
I0
sg13
g14
sg15
I14
sg16
I00
sa(dp328
g8
I00
sg9
F0.016643203049170552
sg10
F5.1956606277071842
sg11
I312
sg12
I0
sg13
g14
sg15
I14
sg16
I00
sa(dp329
g8
I00
sg9
F0.016684542350958509
sg10
F5.2123520124259812
sg11
I313
sg12
I0
sg13
g14
sg15
I14
sg16
I00
sa(dp330
g8
I00
sg9
F0.016646054035845737
sg10
F5.2289955005735465
sg11
I314
sg12
I0
sg13
g14
sg15
I14
sg16
I00
sa(dp331
g8
I00
sg9
F0.016715618102352892
sg10
F5.2457276543964326
sg11
I315
sg12
I0
sg13
g14
sg15
I14
sg16
I00
sa(dp332
g8
I00
sg9
F0.016684827449353179
sg10
F5.2623993673096265
sg11
I316
sg12
I0
sg13
g14
sg15
I14
sg16
I00
sa(dp333
g8
I00
sg9
F0.016655462290145806
sg10
F5.2790622421644002
sg11
I317
sg12
I0
sg13
g14
sg15
I14
sg16
I00
sa(dp334
g8
I00
sg9
F0.016650615613798436
sg10
F5.2957088663970353
sg11
I318
sg12
I0
sg13
g14
sg15
I14
sg16
I00
sa(dp335
g8
I00
sg9
F0.016577060165218427
sg10
F5.3122959050142526
sg11
I319
sg12
I0
sg13
g14
sg15
I14
sg16
I00
sa(dp336
g8
I00
sg9
F0.016684542351868004
sg10
F5.3290374670923484
sg11
I320
sg12
I0
sg13
g14
sg15
I14
sg16
I00
sa(dp337
g8
I00
sg9
F0.01667142781388975
sg10
F5.3456433222199848
sg11
I321
sg12
I0
sg13
g14
sg15
I14
sg16
I00
sa(dp338
g8
I00
sg9
F0.016658313275911496
sg10
F5.3622925123409004
sg11
I322
sg12
I0
sg13
g14
sg15
I14
sg16
I00
sa(dp339
g8
I00
sg9
F0.016657172882332816
sg10
F5.3789619444642085
sg11
I323
sg12
I0
sg13
g14
sg15
I14
sg16
I00
sa(dp340
g8
I00
sg9
F0.016637215977425512
sg10
F5.3955914627786115
sg11
I324
sg12
I0
sg13
g14
sg15
I14
sg16
I00
sa(dp341
g8
I00
sg9
F0.016717328694539901
sg10
F5.4123107871628235
sg11
I325
sg12
I0
sg13
g14
sg15
I14
sg16
I00
sa(dp342
g8
I00
sg9
F0.016688248633727198
sg10
F5.4290078738540615
sg11
I326
sg12
I0
sg13
g14
sg15
I14
sg16
I00
sa(dp343
g8
I00
sg9
F0.016639211668007192
sg10
F5.4456351113794881
sg11
I327
sg12
I0
sg13
g14
sg15
I14
sg16
I00
sa(dp344
g8
I00
sg9
F0.016686252942236024
sg10
F5.4623310576762378
sg11
I328
sg12
I0
sg13
g14
sg15
I14
sg16
I00
sa(dp345
g8
I00
sg9
F0.016528023200407915
sg10
F5.4788607914679233
sg11
I329
sg12
I0
sg13
g14
sg15
I14
sg16
I00
sa(dp346
g8
I00
sg9
F0.016790028846116911
sg10
F5.4957169631979923
sg11
I330
sg12
I0
sg13
g14
sg15
I14
sg16
I00
sa(dp347
g8
I00
sg9
F0.016627522624730773
sg10
F5.5122766323465839
sg11
I331
sg12
I0
sg13
g14
sg15
I14
sg16
I00
sa(dp348
g8
I00
sg9
F0.016634079892355658
sg10
F5.5291524758822561
sg11
I332
sg12
I0
sg13
g14
sg15
I14
sg16
I00
sa(dp349
g8
I00
sg9
F0.016796586114651291
sg10
F5.5457138556230348
sg11
I333
sg12
I0
sg13
g14
sg15
I14
sg16
I00
sa(dp350
g8
I00
sg9
F0.01659872766231274
sg10
F5.5622906306898585
sg11
I334
sg12
I0
sg13
g14
sg15
I14
sg16
I00
sa(dp351
g8
I00
sg9
F0.016645768936541572
sg10
F5.5789355443303066
sg11
I335
sg12
I0
sg13
g14
sg15
I14
sg16
I00
sa(dp352
g8
I00
sg9
F0.016666010939843545
sg10
F5.5956035509607318
sg11
I336
sg12
I0
sg13
g14
sg15
I14
sg16
I00
sa(dp353
g8
I00
sg9
F0.016623531242657918
sg10
F5.6122253716121122
sg11
I337
sg12
I0
sg13
g14
sg15
I14
sg16
I00
sa(dp354
g8
I00
sg9
F0.016700507874702453
sg10
F5.6289258794868147
sg11
I338
sg12
I0
sg13
g14
sg15
I14
sg16
I00
sa(dp355
g8
I00
sg9
F0.016617544171822374
sg10
F5.645543423658637
sg11
I339
sg12
I0
sg13
g14
sg15
I14
sg16
I00
sa(dp356
g8
I00
sg9
F0.016697371789632598
sg10
F5.662319197573197
sg11
I340
sg12
I0
sg13
g14
sg15
I14
sg16
I00
sa(dp357
g8
I00
sg9
F0.016639496766401862
sg10
F5.6788797220178822
sg11
I341
sg12
I0
sg13
g14
sg15
I14
sg16
I00
sa(dp358
g8
I00
sg9
F0.016646624232635077
sg10
F5.6955443074639334
sg11
I342
sg12
I0
sg13
g14
sg15
I14
sg16
I00
sa(dp359
g8
I00
sg9
F0.016640352063404862
sg10
F5.7121832340335459
sg11
I343
sg12
I0
sg13
g14
sg15
I14
sg16
I00
sa(dp360
g8
I00
sg9
F0.016668576827214565
sg10
F5.7288529512561581
sg11
I344
sg12
I0
sg13
g14
sg15
I14
sg16
I00
sa(dp361
g8
I00
sg9
F0.016656317586239311
sg10
F5.7455089837430933
sg11
I345
sg12
I0
sg13
g14
sg15
I14
sg16
I00
sa(dp362
g8
I00
sg9
F0.016659738769703836
sg10
F5.7621627354419616
sg11
I346
sg12
I0
sg13
g14
sg15
I14
sg16
I00
sa(dp363
g8
I00
sg9
F0.016613267692264344
sg10
F5.7787648842868293
sg11
I347
sg12
I0
sg13
g14
sg15
I14
sg16
I00
sa(dp364
g8
I00
sg9
F0.016752966023886984
sg10
F5.7955771508268299
sg11
I348
sg12
I0
sg13
g14
sg15
I14
sg16
I00
sa(dp365
g8
I00
sg9
F0.016664585446051206
sg10
F5.8122118009168844
sg11
I349
sg12
I0
sg13
g14
sg15
I14
sg16
I00
sa(dp366
g8
I00
sg9
F0.016707635340935667
sg10
F5.8289832983518863
sg11
I350
sg12
I0
sg13
g14
sg15
I14
sg16
I00
sa(dp367
g8
I00
sg9
F0.016593595886661205
sg10
F5.8454859477733407
sg11
I351
sg12
I0
sg13
g14
sg15
I14
sg16
I00
sa(dp368
g8
I00
sg9
F0.016687108238329529
sg10
F5.8621679242369282
sg11
I352
sg12
I0
sg13
g14
sg15
I14
sg16
I00
sa(dp369
g8
I00
sg9
F0.016658028178426321
sg10
F5.8788293735988191
sg11
I353
sg12
I0
sg13
g14
sg15
I14
sg16
I00
sa(dp370
g8
I00
sg9
F0.016614693185147189
sg10
F5.8954449220800598
sg11
I354
sg12
I0
sg13
g14
sg15
I14
sg16
I00
sa(dp371
g8
I00
sg9
F0.016645483838146902
sg10
F5.9120915463126948
sg11
I355
sg12
I0
sg13
g14
sg15
I14
sg16
I00
sa(dp372
g8
I00
sg9
F0.016673138405167265
sg10
F5.9287726674801888
sg11
I356
sg12
I0
sg13
g14
sg15
I14
sg16
I00
sa(dp373
g8
I00
sg9
F0.016650045417009096
sg10
F5.945411879148196
sg11
I357
sg12
I0
sg13
g14
sg15
I14
sg16
I00
sa(dp374
g8
I00
sg9
F0.016664015249261865
sg10
F5.9620781751864342
sg11
I358
sg12
I0
sg13
g14
sg15
I14
sg16
I00
sa(dp375
g8
I00
sg9
F0.016668291728819895
sg10
F5.978747037112953
sg11
I359
sg12
I0
sg13
g14
sg15
I14
sg16
I00
sa(dp376
g8
I00
sg9
F0.016660308966493176
sg10
F5.9954774803436521
sg11
I360
sg12
I0
sg13
g14
sg15
I14
sg16
I00
sa(dp377
g8
I00
sg9
F0.016672283109983255
sg10
F6.0120947394170798
sg11
I361
sg12
I0
sg13
g14
sg15
I16
sg16
I01
sa(dp378
g8
I00
sg9
F0.016650615613798436
sg10
F6.0287938217988994
sg11
I362
sg12
I0
sg13
g14
sg15
I16
sg16
I01
sa(dp379
g8
I00
sg9
F0.016665725841448875
sg10
F6.0454452927078819
sg11
I363
sg12
I0
sg13
g14
sg15
I16
sg16
I01
sa(dp380
g8
I00
sg9
F0.016509206689988787
sg10
F6.0618236391246683
sg11
I364
sg12
I0
sg13
g14
sg15
I16
sg16
I01
sa(dp381
g8
I00
sg9
F0.016664585446051206
sg10
F6.0784905053606053
sg11
I365
sg12
I0
sg13
g14
sg15
I16
sg16
I01
sa(dp382
g8
I00
sg9
F0.016669717222612235
sg10
F6.095157656694937
sg11
I366
sg12
I0
sg13
g14
sg15
I16
sg16
I01
sa(dp383
g8
I00
sg9
F0.016595591576333391
sg10
F6.1117618012303865
sg11
I367
sg12
I0
sg13
g14
sg15
I16
sg16
I01
sa(dp384
g8
I00
sg9
F0.016953675463810214
sg10
F6.1287046429451948
sg11
I368
sg12
I0
sg13
g14
sg15
I16
sg16
I01
sa(dp385
g8
I00
sg9
F0.016436506537502282
sg10
F6.1451670934593494
sg11
I369
sg12
I0
sg13
g14
sg15
I16
sg16
I01
sa(dp386
g8
I00
sg9
F0.016650900712193106
sg10
F6.1618376659771457
sg11
I370
sg12
I0
sg13
g14
sg15
I16
sg16
I01
sa(dp387
g8
I00
sg9
F0.016663730150867195
sg10
F6.1784523591632023
sg11
I371
sg12
I0
sg13
g14
sg15
I16
sg16
I01
sa(dp388
g8
I00
sg9
F0.016656032487844641
sg10
F6.195113523425789
sg11
I372
sg12
I0
sg13
g14
sg15
I16
sg16
I01
sa(dp389
g8
I00
sg9
F0.016658313276820991
sg10
F6.2117698410120283
sg11
I373
sg12
I0
sg13
g14
sg15
I16
sg16
I01
sa(dp390
g8
I00
sg9
F0.01666943212330807
sg10
F6.2284392731353364
sg11
I374
sg12
I0
sg13
g14
sg15
I16
sg16
I01
sa(dp391
g8
I00
sg9
F0.016655462290145806
sg10
F6.2450961609192746
sg11
I375
sg12
I0
sg13
g14
sg15
I16
sg16
I01
sa(dp392
g8
I00
sg9
F0.01666743643272639
sg10
F6.2617715801134182
sg11
I376
sg12
I0
sg13
g14
sg15
I16
sg16
I01
sa(dp393
g8
I00
sg9
F0.016654321895657631
sg10
F6.2784179192476586
sg11
I377
sg12
I0
sg13
g14
sg15
I16
sg16
I01
sa(dp394
g8
I00
sg9
F0.016661164263496175
sg10
F6.2950790835111547
sg11
I378
sg12
I0
sg13
g14
sg15
I16
sg16
I01
sa(dp395
g8
I00
sg9
F0.016628948116704123
sg10
F6.3117137336002997
sg11
I379
sg12
I0
sg13
g14
sg15
I16
sg16
I01
sa(dp396
g8
I00
sg9
F0.016700792973097123
sg10
F6.3284572913689772
sg11
I380
sg12
I0
sg13
g14
sg15
I16
sg16
I01
sa(dp397
g8
I00
sg9
F0.016651470909891941
sg10
F6.3450594402147544
sg11
I381
sg12
I0
sg13
g14
sg15
I16
sg16
I01
sa(dp398
g8
I00
sg9
F0.016634364990750328
sg10
F6.3616935201071101
sg11
I382
sg12
I0
sg13
g14
sg15
I16
sg16
I01
sa(dp399
g8
I00
sg9
F0.016686823140844353
sg10
F6.3783823389376266
sg11
I383
sg12
I0
sg13
g14
sg15
I16
sg16
I01
sa(dp400
g8
I00
sg9
F0.016670857616190915
sg10
F6.3950543369492152
sg11
I384
sg12
I0
sg13
g14
sg15
I16
sg16
I01
sa(dp401
g8
I00
sg9
F0.016742987571888079
sg10
F6.4117967543234045
sg11
I385
sg12
I0
sg13
g14
sg15
I16
sg16
I01
sa(dp402
g8
I00
sg9
F0.016760663686909538
sg10
F6.4285565627142205
sg11
I386
sg12
I0
sg13
g14
sg15
I16
sg16
I01
sa(dp403
g8
I00
sg9
F0.016416264535109804
sg10
F6.4449568617255864
sg11
I387
sg12
I0
sg13
g14
sg15
I16
sg16
I01
sa(dp404
g8
I00
sg9
F0.016747264050536614
sg10
F6.4617198062014722
sg11
I388
sg12
I0
sg13
g14
sg15
I16
sg16
I01
sa(dp405
g8
I00
sg9
F0.016684257252563839
sg10
F6.4784052038485243
sg11
I389
sg12
I0
sg13
g14
sg15
I16
sg16
I01
sa(dp406
g8
I00
sg9
F0.016666010939843545
sg10
F6.4951156901752256
sg11
I390
sg12
I0
sg13
g14
sg15
I16
sg16
I01
sa(dp407
g8
I00
sg9
F0.016581336644776457
sg10
F6.5116494153480744
sg11
I391
sg12
I0
sg13
g14
sg15
I16
sg16
I01
sa(dp408
g8
I00
sg9
F0.016680550970704644
sg10
F6.5283359533896146
sg11
I392
sg12
I0
sg13
g14
sg15
I16
sg16
I01
sa(dp409
g8
I00
sg9
F0.016662019558680186
sg10
F6.5449945517648302
sg11
I393
sg12
I0
sg13
g14
sg15
I16
sg16
I01
sa(dp410
g8
I00
sg9
F0.016635220286843833
sg10
F6.5616274912636072
sg11
I394
sg12
I0
sg13
g14
sg15
I16
sg16
I01
sa(dp411
g8
I00
sg9
F0.016682831759680994
sg10
F6.5783114634168669
sg11
I395
sg12
I0
sg13
g14
sg15
I16
sg16
I01
sa(dp412
g8
I00
sg9
F0.01666487054535537
sg10
F6.594978329652804
sg11
I396
sg12
I0
sg13
g14
sg15
I16
sg16
I01
sa(dp413
g8
I00
sg9
F0.016649760317704931
sg10
F6.61162751977281
sg11
I397
sg12
I0
sg13
g14
sg15
I16
sg16
I01
sa(dp414
g8
I00
sg9
F0.01666971722170274
sg10
F6.6282995177843986
sg11
I398
sg12
I0
sg13
g14
sg15
I16
sg16
I01
sa(dp415
g8
I00
sg9
F0.016645198739752232
sg10
F6.6449412953397768
sg11
I399
sg12
I0
sg13
g14
sg15
I16
sg16
I01
sa(dp416
g8
I00
sg9
F0.016680836068189819
sg10
F6.6616671769934328
sg11
I400
sg12
I0
sg13
g14
sg15
I16
sg16
I01
sa(dp417
g8
I00
sg9
F0.016657457980727486
sg10
F6.6782832956723723
sg11
I401
sg12
I0
sg13
g14
sg15
I16
sg16
I01
sa(dp418
g8
I00
sg9
F0.016685682746356179
sg10
F6.6949749654886546
sg11
I402
sg12
I0
sg13
g14
sg15
I16
sg16
I01
sa(dp419
g8
I00
sg9
F0.016589034307799011
sg10
F6.711573978249362
sg11
I403
sg12
I0
sg13
g14
sg15
I16
sg16
I01
sa(dp420
g8
I00
sg9
F0.016679125476912304
sg10
F6.728183254560463
sg11
I404
sg12
I0
sg13
g14
sg15
I16
sg16
I01
sa(dp421
g8
I00
sg9
F0.016746978952141944
sg10
F6.7449806959712078
sg11
I405
sg12
I0
sg13
g14
sg15
I16
sg16
I01
sa(dp422
g8
I00
sg9
F0.016625241834844928
sg10
F6.7616065080037515
sg11
I406
sg12
I0
sg13
g14
sg15
I16
sg16
I01
sa(dp423
g8
I00
sg9
F0.016639781865706027
sg10
F6.7782491408552232
sg11
I407
sg12
I0
sg13
g14
sg15
I16
sg16
I01
sa(dp424
g8
I00
sg9
F0.016660308967402671
sg10
F6.7949065988359507
sg11
I408
sg12
I0
sg13
g14
sg15
I16
sg16
I01
sa(dp425
g8
I00
sg9
F0.016694235704562743
sg10
F6.8116031153303993
sg11
I409
sg12
I0
sg13
g14
sg15
I16
sg16
I01
sa(dp426
g8
I00
sg9
F0.016630943807285803
sg10
F6.8282753984394731
sg11
I410
sg12
I0
sg13
g14
sg15
I16
sg16
I01
sa(dp427
g8
I00
sg9
F0.016658598375215661
sg10
F6.8448920873152019
sg11
I411
sg12
I0
sg13
g14
sg15
I16
sg16
I01
sa(dp428
g8
I00
sg9
F0.01666886192651873
sg10
F6.8615600939456272
sg11
I412
sg12
I0
sg13
g14
sg15
I16
sg16
I01
sa(dp429
g8
I00
sg9
F0.016654036797262961
sg10
F6.8782141307428901
sg11
I413
sg12
I0
sg13
g14
sg15
I16
sg16
I01
sa(dp430
g8
I00
sg9
F0.016661449360981351
sg10
F6.8948741546118981
sg11
I414
sg12
I0
sg13
g14
sg15
I16
sg16
I01
sa(dp431
g8
I00
sg9
F0.016733864415073185
sg10
F6.9116063084347843
sg11
I415
sg12
I0
sg13
g14
sg15
I16
sg16
I01
sa(dp432
g8
I00
sg9
F0.016588179012615001
sg10
F6.9281970533347703
sg11
I416
sg12
I0
sg13
g14
sg15
I16
sg16
I01
sa(dp433
g8
I00
sg9
F0.016658883473610331
sg10
F6.944853941117799
sg11
I417
sg12
I0
sg13
g14
sg15
I16
sg16
I01
sa(dp434
g8
I00
sg9
F0.016656032487844641
sg10
F6.9615119692962253
sg11
I418
sg12
I0
sg13
g14
sg15
I16
sg16
I01
sa(dp435
g8
I00
sg9
F0.016840491304719762
sg10
F6.9783501798119687
sg11
I419
sg12
I0
sg13
g14
sg15
I16
sg16
I01
sa(dp436
g8
I00
sg9
F0.016431089664365572
sg10
F6.9948137707206115
sg11
I420
sg12
I0
sg13
g14
sg15
I16
sg16
I01
sa(dp437
g8
I00
sg9
F0.016787462958745891
sg10
F7.0115735791114275
sg11
I421
sg12
I0
sg13
g14
sg15
I16
sg16
I00
sa(dp438
g8
I00
sg9
F0.016619254763099889
sg10
F7.0281586220389727
sg11
I422
sg12
I0
sg13
g14
sg15
I16
sg16
I00
sa(dp439
g8
I00
sg9
F0.016695376099050918
sg10
F7.0448537130396289
sg11
I423
sg12
I0
sg13
g14
sg15
I16
sg16
I00
sa(dp440
g8
I00
sg9
F0.016794590424979106
sg10
F7.0617654790030429
sg11
I424
sg12
I0
sg13
g14
sg15
I16
sg16
I00
sa(dp441
g8
I00
sg9
F0.016668861925609235
sg10
F7.0784323452389799
sg11
I425
sg12
I0
sg13
g14
sg15
I16
sg16
I00
sa(dp442
g8
I00
sg9
F0.016560239346290473
sg10
F7.0949788998505028
sg11
I426
sg12
I0
sg13
g14
sg15
I16
sg16
I00
sa(dp443
g8
I00
sg9
F0.016721034976399096
sg10
F7.1117119089694825
sg11
I427
sg12
I0
sg13
g14
sg15
I16
sg16
I00
sa(dp444
g8
I00
sg9
F0.016692525113285228
sg10
F7.128406714871744
sg11
I428
sg12
I0
sg13
g14
sg15
I16
sg16
I00
sa(dp445
g8
I00
sg9
F0.016652611303470621
sg10
F7.1450593261752147
sg11
I429
sg12
I0
sg13
g14
sg15
I16
sg16
I00
sa(dp446
g8
I00
sg9
F0.016677414885634789
sg10
F7.1618097263108211
sg11
I430
sg12
I0
sg13
g14
sg15
I16
sg16
I00
sa(dp447
g8
I00
sg9
F0.016646909331029747
sg10
F7.1783847907863674
sg11
I431
sg12
I0
sg13
g14
sg15
I16
sg16
I00
sa(dp448
g8
I00
sg9
F0.016685397647052014
sg10
F7.195067907644443
sg11
I432
sg12
I0
sg13
g14
sg15
I16
sg16
I00
sa(dp449
g8
I00
sg9
F0.016642347753077047
sg10
F7.2117113957920083
sg11
I433
sg12
I0
sg13
g14
sg15
I16
sg16
I00
sa(dp450
g8
I00
sg9
F0.01666658113754238
sg10
F7.2283759812380595
sg11
I434
sg12
I0
sg13
g14
sg15
I16
sg16
I00
sa(dp451
g8
I00
sg9
F0.016664585446051206
sg10
F7.2450422772772072
sg11
I435
sg12
I0
sg13
g14
sg15
I16
sg16
I00
sa(dp452
g8
I00
sg9
F0.016517759649104846
sg10
F7.261576002450056
sg11
I436
sg12
I0
sg13
g14
sg15
I16
sg16
I00
sa(dp453
g8
I00
sg9
F0.016825951274768158
sg10
F7.2784199149382403
sg11
I437
sg12
I0
sg13
g14
sg15
I16
sg16
I00
sa(dp454
g8
I00
sg9
F0.01653115928547777
sg10
F7.2949134412037893
sg11
I438
sg12
I0
sg13
g14
sg15
I16
sg16
I00
sa(dp455
g8
I00
sg9
F0.016715047904654057
sg10
F7.3116535777880927
sg11
I439
sg12
I0
sg13
g14
sg15
I16
sg16
I00
sa(dp456
g8
I00
sg9
F0.016659168572914496
sg10
F7.3282907937664277
sg11
I440
sg12
I0
sg13
g14
sg15
I16
sg16
I00
sa(dp457
g8
I00
sg9
F0.016672568208377925
sg10
F7.3449091932334341
sg11
I441
sg12
I0
sg13
g14
sg15
I16
sg16
I00
sa(dp458
g8
I00
sg9
F0.016692240013981063
sg10
F7.3616496149170416
sg11
I442
sg12
I0
sg13
g14
sg15
I16
sg16
I00
sa(dp459
g8
I00
sg9
F0.016658883473610331
sg10
F7.3783096387860496
sg11
I443
sg12
I0
sg13
g14
sg15
I16
sg16
I00
sa(dp460
g8
I00
sg9
F0.016666010939843545
sg10
F7.3949759348242878
sg11
I444
sg12
I0
sg13
g14
sg15
I16
sg16
I00
sa(dp461
g8
I00
sg9
F0.016510632183781127
sg10
F7.4114355343517673
sg11
I445
sg12
I0
sg13
g14
sg15
I16
sg16
I00
sa(dp462
g8
I00
sg9
F0.016773493125583627
sg10
F7.4282113082663273
sg11
I446
sg12
I0
sg13
g14
sg15
I16
sg16
I00
sa(dp463
g8
I00
sg9
F0.016657743079122156
sg10
F7.4448787446990536
sg11
I447
sg12
I0
sg13
g14
sg15
I16
sg16
I00
sa(dp464
g8
I00
sg9
F0.01666658113754238
sg10
F7.4615353473845971
sg11
I448
sg12
I0
sg13
g14
sg15
I16
sg16
I00
sa(dp465
g8
I00
sg9
F0.016704214156561648
sg10
F7.4782925898871326
sg11
I449
sg12
I0
sg13
g14
sg15
I16
sg16
I00
sa(dp466
g8
I00
sg9
F0.016648619923216756
sg10
F7.4950104887793714
sg11
I450
sg12
I0
sg13
g14
sg15
I16
sg16
I00
sa(dp467
g8
I00
sg9
F0.016643203049170552
sg10
F7.5115835575634264
sg11
I451
sg12
I0
sg13
g14
sg15
I16
sg16
I00
sa(dp468
g8
I00
sg9
F0.016691099619492888
sg10
F7.5282732316900365
sg11
I452
sg12
I0
sg13
g14
sg15
I16
sg16
I00
sa(dp469
g8
I00
sg9
F0.016612982593869674
sg10
F7.5449221367116479
sg11
I453
sg12
I0
sg13
g14
sg15
I16
sg16
I00
sa(dp470
g8
I00
sg9
F0.016614122987448354
sg10
F7.5615006223706587
sg11
I454
sg12
I0
sg13
g14
sg15
I16
sg16
I00
sa(dp471
g8
I00
sg9
F0.01667142781388975
sg10
F7.5781731905790366
sg11
I455
sg12
I0
sg13
g14
sg15
I16
sg16
I00
sa(dp472
g8
I00
sg9
F0.016737570697841875
sg10
F7.5949121867697613
sg11
I456
sg12
I0
sg13
g14
sg15
I16
sg16
I00
sa(dp473
g8
I00
sg9
F0.016593310787357041
sg10
F7.6115035018665367
sg11
I457
sg12
I0
sg13
g14
sg15
I16
sg16
I00
sa(dp474
g8
I00
sg9
F0.016733294218283845
sg10
F7.6282402172682851
sg11
I458
sg12
I0
sg13
g14
sg15
I16
sg16
I00
sa(dp475
g8
I00
sg9
F0.016625812031634268
sg10
F7.6448660292999193
sg11
I459
sg12
I0
sg13
g14
sg15
I16
sg16
I00
sa(dp476
g8
I00
sg9
F0.016696231395144423
sg10
F7.6616301141712029
sg11
I460
sg12
I0
sg13
g14
sg15
I16
sg16
I00
sa(dp477
g8
I00
sg9
F0.016602719042566605
sg10
F7.67816184365347
sg11
I461
sg12
I0
sg13
g14
sg15
I16
sg16
I00
sa(dp478
g8
I00
sg9
F0.016723600864679611
sg10
F7.6948888657007046
sg11
I462
sg12
I0
sg13
g14
sg15
I16
sg16
I00
sa(dp479
g8
I00
sg9
F0.016654892092446971
sg10
F7.7115420472018741
sg11
I463
sg12
I0
sg13
g14
sg15
I16
sg16
I00
sa(dp480
g8
I00
sg9
F0.016623531243567413
sg10
F7.7281872459416263
sg11
I464
sg12
I0
sg13
g14
sg15
I16
sg16
I00
sa(dp481
g8
I00
sg9
F0.016696231395144423
sg10
F7.7448680820107256
sg11
I465
sg12
I0
sg13
g14
sg15
I16
sg16
I00
sa(dp482
g8
I00
sg9
F0.016664015249261865
sg10
F7.7615243995969649
sg11
I466
sg12
I0
sg13
g14
sg15
I16
sg16
I00
sa(dp483
g8
I00
sg9
F0.016661449361890845
sg10
F7.7781872744517386
sg11
I467
sg12
I0
sg13
g14
sg15
I16
sg16
I00
sa(dp484
g8
I00
sg9
F0.016658313276820991
sg10
F7.7948470132214425
sg11
I468
sg12
I0
sg13
g14
sg15
I16
sg16
I00
sa(dp485
g8
I00
sg9
F0.016567081713219522
sg10
F7.811409818455104
sg11
I469
sg12
I0
sg13
g14
sg15
I16
sg16
I00
sa(dp486
g8
I00
sg9
F0.016834219134580053
sg10
F7.8283130314594018
sg11
I470
sg12
I0
sg13
g14
sg15
I16
sg16
I00
sa(dp487
g8
I00
sg9
F0.016474139558340539
sg10
F7.8447435509260686
sg11
I471
sg12
I0
sg13
g14
sg15
I16
sg16
I00
sa(dp488
g8
I00
sg9
F0.016686252942236024
sg10
F7.8614015791044949
sg11
I472
sg12
I0
sg13
g14
sg15
I16
sg16
I00
sa(dp489
g8
I00
sg9
F0.016683116858075664
sg10
F7.8780881171460351
sg11
I473
sg12
I0
sg13
g14
sg15
I16
sg16
I00
sa(dp490
g8
I00
sg9
F0.0166645854469607
sg10
F7.8947541280858786
sg11
I474
sg12
I0
sg13
g14
sg15
I16
sg16
I00
sa(dp491
g8
I00
sg9
F0.016718469089028076
sg10
F7.9114668952015563
sg11
I475
sg12
I0
sg13
g14
sg15
I16
sg16
I00
sa(dp492
g8
I00
sg9
F0.016602719042566605
sg10
F7.9280710397379153
sg11
I476
sg12
I0
sg13
g14
sg15
I16
sg16
I00
sa(dp493
g8
I00
sg9
F0.016661164262586681
sg10
F7.9447436079462932
sg11
I477
sg12
I0
sg13
g14
sg15
I16
sg16
I00
sa(dp494
g8
I00
sg9
F0.016645768936541572
sg10
F7.9613774027402542
sg11
I478
sg12
I0
sg13
g14
sg15
I16
sg16
I00
sa(dp495
g8
I00
sg9
F0.016705639650353987
sg10
F7.9780873188701662
sg11
I479
sg12
I0
sg13
g14
sg15
I16
sg16
I00
sa(dp496
g8
I00
sg9
F0.016631514004984638
sg10
F7.9947909628299385
sg11
I480
sg12
I0
sg13
g14
sg15
I16
sg16
I00
sa(dp497
g8
I00
sg9
F0.016653751698868291
sg10
F8.0113908308858299
sg11
I481
sg12
I0
sg13
g14
sg15
I11
sg16
I01
sa(dp498
g8
I00
sg9
F0.016693950605258578
sg10
F8.0281232698080203
sg11
I482
sg12
I0
sg13
g14
sg15
I11
sg16
I01
sa(dp499
g8
I00
sg9
F0.016689959225914208
sg10
F8.0448083823566776
sg11
I483
sg12
I0
sg13
g14
sg15
I11
sg16
I01
sa(dp500
g8
I00
sg9
F0.016658313275911496
sg10
F8.0614649850413116
sg11
I484
sg12
I0
sg13
g14
sg15
I11
sg16
I01
sa(dp501
g8
I00
sg9
F0.016597587267824565
sg10
F8.0780657083932965
sg11
I485
sg12
I0
sg13
g14
sg15
I11
sg16
I01
sa(dp502
g8
I00
sg9
F0.016668576827214565
sg10
F8.0947359958126981
sg11
I486
sg12
I0
sg13
g14
sg15
I11
sg16
I01
sa(dp503
g8
I00
sg9
F0.01666258975637902
sg10
F8.1113957345824019
sg11
I487
sg12
I0
sg13
g14
sg15
I11
sg16
I01
sa(dp504
g8
I00
sg9
F0.016645768936541572
sg10
F8.1280728643687326
sg11
I488
sg12
I0
sg13
g14
sg15
I11
sg16
I01
sa(dp505
g8
I00
sg9
F0.016687963534423034
sg10
F8.1447297521526707
sg11
I489
sg12
I0
sg13
g14
sg15
I11
sg16
I01
sa(dp506
g8
I00
sg9
F0.016563660529754998
sg10
F8.1612078830912651
sg11
I490
sg12
I0
sg13
g14
sg15
I11
sg16
I01
sa(dp507
g8
I00
sg9
F0.016658313276820991
sg10
F8.1778174445016703
sg11
I491
sg12
I0
sg13
g14
sg15
I11
sg16
I01
sa(dp508
g8
I00
sg9
F0.016666010939843545
sg10
F8.1944863064272795
sg11
I492
sg12
I0
sg13
g14
sg15
I11
sg16
I01
sa(dp509
g8
I00
sg9
F0.016651756008286611
sg10
F8.2111369220410779
sg11
I493
sg12
I0
sg13
g14
sg15
I11
sg16
I01
sa(dp510
g8
I00
sg9
F0.016675134095748945
sg10
F8.2278109157423387
sg11
I494
sg12
I0
sg13
g14
sg15
I11
sg16
I01
sa(dp511
g8
I00
sg9
F0.016670287419401575
sg10
F8.2444911816146487
sg11
I495
sg12
I0
sg13
g14
sg15
I11
sg16
I01
sa(dp512
g8
I00
sg9
F0.016683972154169169
sg10
F8.2611959659689091
sg11
I496
sg12
I0
sg13
g14
sg15
I11
sg16
I01
sa(dp513
g8
I00
sg9
F0.016658598375215661
sg10
F8.2778519984558443
sg11
I497
sg12
I0
sg13
g14
sg15
I11
sg16
I01
sa(dp514
g8
I00
sg9
F0.016661734460285516
sg10
F8.2945157286067115
sg11
I498
sg12
I0
sg13
g14
sg15
I11
sg16
I01
sa(dp515
g8
I00
sg9
F0.016692810211679898
sg10
F8.311217947073601
sg11
I499
sg12
I0
sg13
g14
sg15
I11
sg16
I01
sa(dp516
g8
I00
sg9
F0.016636930879030842
sg10
F8.3278984980433961
sg11
I500
sg12
I0
sg13
g14
sg15
I11
sg16
I01
sa(dp517
g8
I00
sg9
F0.016654892092446971
sg10
F8.3445006468891734
sg11
I501
sg12
I0
sg13
g14
sg15
I11
sg16
I01
sa(dp518
g8
I00
sg9
F0.01666515564375004
sg10
F8.3611660876313181
sg11
I502
sg12
I0
sg13
g14
sg15
I11
sg16
I01
sa(dp519
g8
I00
sg9
F0.016665725841448875
sg10
F8.3778309581766734
sg11
I503
sg12
I0
sg13
g14
sg15
I11
sg16
I01
sa(dp520
g8
I00
sg9
F0.016579911151893612
sg10
F8.3944185669915896
sg11
I504
sg12
I0
sg13
g14
sg15
I11
sg16
I01
sa(dp521
g8
I00
sg9
F0.01673956638751406
sg10
F8.4111487251248036
sg11
I505
sg12
I0
sg13
g14
sg15
I11
sg16
I01
sa(dp522
g8
I00
sg9
F0.016669717222612235
sg10
F8.4278338376734609
sg11
I506
sg12
I0
sg13
g14
sg15
I11
sg16
I01
sa(dp523
g8
I00
sg9
F0.016646054034936242
sg10
F8.4444662069736296
sg11
I507
sg12
I0
sg13
g14
sg15
I11
sg16
I01
sa(dp524
g8
I00
sg9
F0.01666430034856603
sg10
F8.4611299371244968
sg11
I508
sg12
I0
sg13
g14
sg15
I11
sg16
I01
sa(dp525
g8
I00
sg9
F0.016645768936541572
sg10
F8.4777757060610384
sg11
I509
sg12
I0
sg13
g14
sg15
I11
sg16
I01
sa(dp526
g8
I00
sg9
F0.016668006630425225
sg10
F8.4944924645578794
sg11
I510
sg12
I0
sg13
g14
sg15
I11
sg16
I01
sa(dp527
g8
I00
sg9
F0.016651470908982446
sg10
F8.5110971792910277
sg11
I511
sg12
I0
sg13
g14
sg15
I11
sg16
I01
sa(dp528
g8
I00
sg9
F0.01667171291228442
sg10
F8.5277697474994056
sg11
I512
sg12
I0
sg13
g14
sg15
I11
sg16
I01
sa(dp529
g8
I00
sg9
F0.016660594065797341
sg10
F8.5444274905794373
sg11
I513
sg12
I0
sg13
g14
sg15
I11
sg16
I01
sa(dp530
g8
I00
sg9
F0.016675704293447779
sg10
F8.5611034799712797
sg11
I514
sg12
I0
sg13
g14
sg15
I11
sg16
I01
sa(dp531
g8
I00
sg9
F0.016649475219310261
sg10
F8.5777503893023095
sg11
I515
sg12
I0
sg13
g14
sg15
I11
sg16
I01
sa(dp532
g8
I00
sg9
F0.016604429634753615
sg10
F8.5943542487393643
sg11
I516
sg12
I0
sg13
g14
sg15
I11
sg16
I01
sa(dp533
g8
I00
sg9
F0.016666296038238215
sg10
F8.6110202596792078
sg11
I517
sg12
I0
sg13
g14
sg15
I11
sg16
I01
sa(dp534
g8
I00
sg9
F0.016650900712193106
sg10
F8.6276728709835879
sg11
I518
sg12
I0
sg13
g14
sg15
I11
sg16
I01
sa(dp535
g8
I00
sg9
F0.016712482017283037
sg10
F8.6443864933953591
sg11
I519
sg12
I0
sg13
g14
sg15
I11
sg16
I01
sa(dp536
g8
I00
sg9
F0.016654606994052301
sg10
F8.6610929883418066
sg11
I520
sg12
I0
sg13
g14
sg15
I11
sg16
I01
sa(dp537
g8
I00
sg9
F0.016640637161799532
sg10
F8.6776766057755594
sg11
I521
sg12
I0
sg13
g14
sg15
I11
sg16
I01
sa(dp538
g8
I00
sg9
F0.01673300911897968
sg10
F8.6944150317685853
sg11
I522
sg12
I0
sg13
g14
sg15
I11
sg16
I01
sa(dp539
g8
I00
sg9
F0.016626667327727773
sg10
F8.7110431245901054
sg11
I523
sg12
I0
sg13
g14
sg15
I11
sg16
I01
sa(dp540
g8
I00
sg9
F0.016660023869008
sg10
F8.7277062845432738
sg11
I524
sg12
I0
sg13
g14
sg15
I11
sg16
I01
sa(dp541
g8
I00
sg9
F0.016618114368611714
sg10
F8.7443189820387488
sg11
I525
sg12
I0
sg13
g14
sg15
I11
sg16
I01
sa(dp542
g8
I00
sg9
F0.016709345932213182
sg10
F8.7610300385622395
sg11
I526
sg12
I0
sg13
g14
sg15
I11
sg16
I01
sa(dp543
g8
I00
sg9
F0.016656317586239311
sg10
F8.7776880667406658
sg11
I527
sg12
I0
sg13
g14
sg15
I11
sg16
I01
sa(dp544
g8
I00
sg9
F0.016661734460285516
sg10
F8.7943580690616727
sg11
I528
sg12
I0
sg13
g14
sg15
I11
sg16
I01
sa(dp545
g8
I00
sg9
F0.01667114271549508
sg10
F8.8110195184226541
sg11
I529
sg12
I0
sg13
g14
sg15
I11
sg16
I01
sa(dp546
g8
I00
sg9
F0.016610416705589159
sg10
F8.8276775466010804
sg11
I530
sg12
I0
sg13
g14
sg15
I11
sg16
I01
sa(dp547
g8
I00
sg9
F0.016691954915586393
sg10
F8.8443193241564586
sg11
I531
sg12
I0
sg13
g14
sg15
I11
sg16
I01
sa(dp548
g8
I00
sg9
F0.01660813591661281
sg10
F8.8609260345801886
sg11
I532
sg12
I0
sg13
g14
sg15
I11
sg16
I01
sa(dp549
g8
I00
sg9
F0.016655462291055301
sg10
F8.877580926673545
sg11
I533
sg12
I0
sg13
g14
sg15
I11
sg16
I01
sa(dp550
g8
I00
sg9
F0.016660879164192011
sg10
F8.8942420909361317
sg11
I534
sg12
I0
sg13
g14
sg15
I11
sg16
I01
sa(dp551
g8
I00
sg9
F0.016680265871400479
sg10
F8.9109240673997192
sg11
I535
sg12
I0
sg13
g14
sg15
I11
sg16
I01
sa(dp552
g8
I00
sg9
F0.016644343443658727
sg10
F8.9275652747583081
sg11
I536
sg12
I0
sg13
g14
sg15
I11
sg16
I01
sa(dp553
g8
I00
sg9
F0.016660023868098506
sg10
F8.9442278645146871
sg11
I537
sg12
I0
sg13
g14
sg15
I11
sg16
I01
sa(dp554
g8
I00
sg9
F0.01660385943705478
sg10
F8.9608317239517419
sg11
I538
sg12
I0
sg13
g14
sg15
I11
sg16
I01
sa(dp555
g8
I00
sg9
F0.016696231395144423
sg10
F8.9775410698839551
sg11
I539
sg12
I0
sg13
g14
sg15
I11
sg16
I01
sa(dp556
g8
I00
sg9
F0.016751825629398809
sg10
F8.9943296732371891
sg11
I540
sg12
I0
sg13
g14
sg15
I11
sg16
I01
sa(dp557
g8
I00
sg9
F0.016659738769703836
sg10
F9.0109457919161287
sg11
I541
sg12
I0
sg13
g14
sg15
I11
sg16
I00
sa(dp558
g8
I00
sg9
F0.016660023869008
sg10
F9.0275656168769274
sg11
I542
sg12
I0
sg13
g14
sg15
I11
sg16
I00
sa(dp559
g8
I00
sg9
F0.016666296038238215
sg10
F9.0442321980135603
sg11
I543
sg12
I0
sg13
g14
sg15
I11
sg16
I00
sa(dp560
g8
I00
sg9
F0.016755531911258004
sg10
F9.0610766806994434
sg11
I544
sg12
I0
sg13
g14
sg15
I11
sg16
I00
sa(dp561
g8
I00
sg9
F0.016574779376242077
sg10
F9.0780594362231568
sg11
I545
sg12
I0
sg13
g14
sg15
I11
sg16
I00
sasS'frameBit'
p562
I4
sS'rewarded'
p563
I00
sS'lickData'
p564
(cnumpy.core.multiarray
_reconstruct
p565
(cnumpy
ndarray
p566
(I0
tS'b'
tRp567
(I1
(L0L
tcnumpy
dtype
p568
(S'i8'
I0
I1
tRp569
(I3
S'<'
NNNI-1
I-1
I0
tbI00
S''
tbg565
(g566
(I0
tS'b'
tRp570
(I1
(L0L
tg569
I00
S''
tbtp571
sS'full_traceback_on'
p572
I00
sS'rewardvol'
p573
F0.0080000000000000002
sS'monitor'
p574
(dp575
S'sizepix'
p576
(lp577
I1024
aI768
asS'name'
p578
S'testMonitor'
p579
sS'gammagrid'
p580
(lp581
(lp582
F0
aF1
aF1
aFnan
aFnan
aFnan
aa(lp583
F0
aF1
aF1
aFnan
aFnan
aFnan
aa(lp584
F0
aF1
aF1
aFnan
aFnan
aFnan
aa(lp585
F0
aF1
aF1
aFnan
aFnan
aFnan
aasS'calibrationdate'
p586
S'time.struct_time(tm_year=2016, tm_mon=6, tm_mday=13, tm_hour=14, tm_min=56, tm_sec=19, tm_wday=0, tm_yday=165, tm_isdst=1)'
p587
sS'widthcm'
p588
I30
sS'distancecm'
p589
I15
sS'gamma'
p590
F1
ssS'vsig'
p591
g565
(g566
(I0
tS'b'
tRp592
(I1
(L546L
tg568
(S'f2'
I0
I1
tRp593
(I3
S'<'
NNNI-1
I-1
I0
tbI00
S'\x00~\x00~\x00~\x00~\x00~\x00~\x00~\x00~\x00~\x00~\x00~\x00~\x00~\x00~\x00~\x00~\x00~\x00~\x00~\x00~\x00~\x00~\x00~\x00~\x00~\x00~\x00~\x00~\x00~\x00~\x00~\x00~\x00~\x00~\x00~\x00~\x00~\x00~\x00~\x00~\x00~\x00~\x00~\x00~\x00~\x00~\x00~\x00~\x00~\x00~\x00~\x00~\x00~\x00~\x00~\x00~\x00~\x00~\x00~\x00~\x00~\x00~\x00~\x00~\x00~\x00~\x00~\x00~\x00~\x00~\x00~\x00~\x00~\x00~\x00~\x00~\x00~\x00~\x00~\x00~\x00~\x00~\x00~\x00~\x00~\x00~\x00~\x00~\x00~\x00~\x00~\x00~\x00~\x00~\x00~\x00~\x00~\x00~\x00~\x00~\x00~\x00~\x00~\x00~\x00~\x00~\x00~\x00~\x00~\x00~\x00~\x00~\x00~\x00~\x00~\x00~\x00~\x00~\x00~\x00~\x00~\x00~\x00~\x00~\x00~\x00~\x00~\x00~\x00~\x00~\x00~\x00~\x00~\x00~\x00~\x00~\x00~\x00~\x00~\x00~\x00~\x00~\x00~\x00~\x00~\x00~\x00~\x00~\x00~\x00~\x00~\x00~\x00~\x00~\x00~\x00~\x00~\x00~\x00~\x00~\x00~\x00~\x00~\x00~\x00~\x00~\x00~\x00~\x00~\x00~\x00~\x00~\x00~\x00~\x00~\x00~\x00~\x00~\x00~\x00~\x00~\x00~\x00~\x00~\x00~\x00~\x00~\x00~\x00~\x00~\x00~\x00~\x00~\x00~\x00~\x00~\x00~\x00~\x00~\x00~\x00~\x00~\x00~\x00~\x00~\x00~\x00~\x00~\x00~\x00~\x00~\x00~\x00~\x00~\x00~\x00~\x00~\x00~\x00~\x00~\x00~\x00~\x00~\x00~\x00~\x00~\x00~\x00~\x00~\x00~\x00~\x00~\x00~\x00~\x00~\x00~\x00~\x00~\x00~\x00~\x00~\x00~\x00~\x00~\x00~\x00~\x00~\x00~\x00~\x00~\x00~\x00~\x00~\x00~\x00~\x00~\x00~\x00~\x00~\x00~\x00~\x00~\x00~\x00~\x00~\x00~\x00~\x00~\x00~\x00~\x00~\x00~\x00~\x00~\x00~\x00~\x00~\x00~\x00~\x00~\x00~\x00~\x00~\x00~\x00~\x00~\x00~\x00~\x00~\x00~\x00~\x00~\x00~\x00~\x00~\x00~\x00~\x00~\x00~\x00~\x00~\x00~\x00~\x00~\x00~\x00~\x00~\x00~\x00~\x00~\x00~\x00~\x00~\x00~\x00~\x00~\x00~\x00~\x00~\x00~\x00~\x00~\x00~\x00~\x00~\x00~\x00~\x00~\x00~\x00~\x00~\x00~\x00~\x00~\x00~\x00~\x00~\x00~\x00~\x00~\x00~\x00~\x00~\x00~\x00~\x00~\x00~\x00~\x00~\x00~\x00~\x00~\x00~\x00~\x00~\x00~\x00~\x00~\x00~\x00~\x00~\x00~\x00~\x00~\x00~\x00~\x00~\x00~\x00~\x00~\x00~\x00~\x00~\x00~\x00~\x00~\x00~\x00~\x00~\x00~\x00~\x00~\x00~\x00~\x00~\x00~\x00~\x00~\x00~\x00~\x00~\x00~\x00~\x00~\x00~\x00~\x00~\x00~\x00~\x00~\x00~\x00~\x00~\x00~\x00~\x00~\x00~\x00~\x00~\x00~\x00~\x00~\x00~\x00~\x00~\x00~\x00~\x00~\x00~\x00~\x00~\x00~\x00~\x00~\x00~\x00~\x00~\x00~\x00~\x00~\x00~\x00~\x00~\x00~\x00~\x00~\x00~\x00~\x00~\x00~\x00~\x00~\x00~\x00~\x00~\x00~\x00~\x00~\x00~\x00~\x00~\x00~\x00~\x00~\x00~\x00~\x00~\x00~\x00~\x00~\x00~\x00~\x00~\x00~\x00~\x00~\x00~\x00~\x00~\x00~\x00~\x00~\x00~\x00~\x00~\x00~\x00~\x00~\x00~\x00~\x00~\x00~\x00~\x00~\x00~\x00~\x00~\x00~\x00~\x00~\x00~\x00~\x00~\x00~\x00~\x00~\x00~\x00~\x00~\x00~\x00~\x00~\x00~\x00~\x00~\x00~\x00~\x00~\x00~\x00~\x00~\x00~\x00~\x00~\x00~\x00~\x00~\x00~\x00~\x00~\x00~\x00~\x00~\x00~\x00~\x00~\x00~\x00~\x00~\x00~\x00~\x00~\x00~\x00~\x00~\x00~\x00~\x00~\x00~\x00~\x00~\x00~\x00~\x00~\x00~\x00~'
tbsS'platform'
p594
(dp595
S'opengl'
p596
S'4.2.0 - Build 10.18.10.3496'
p597
sS'python'
p598
S'2.7.11'
p599
sS'hardware'
p600
(S'Intel64 Family 6 Model 60 Stepping 3, GenuineIntel'
p601
S'AMD64'
p602
tp603
sS'aibstim'
p604
S'1.04'
p605
sS'pyglet'
p606
S'1.2.4'
p607
sS'os'
p608
(S'Windows'
p609
S'7'
S'6.1.7601'
p610
tp611
sS'psychopy'
p612
S'1.82.01'
p613
ssS'window'
p614
S"Window(allowGUI=False, allowStencil=False, autoLog=True, bitsMode=UNKNOWN, blendMode='avg', color=array([ 0.,  0.,  0.]), colorSpace='rgb', fullscr=UNKNOWN, gamma=None, lms=UNKNOWN, monitor=<psychopy.monitors.calibTools.Monitor instance at 0x0000000009500848>, name='window1', pos=[0, 0], screen=0, size=array([1280, 1024]), stereo=False, units='deg', useFBO=False, viewOri=0.0, viewPos=None, viewScale=None, waitBlanking=True, winType='pyglet')"
p615
sS'score'
p616
(lp617
I0
asS'syncsqrcolorsequence'
p618
(lp619
I-1
aI1
asS'stim_on_frame'
p620
NsS'rewardline'
p621
I0
sS'do'
p622
NsS'bg_luminance'
p623
F0
sS'duration_on'
p624
I1
sS'syncpulse'
p625
S'False'
p626
sS'di'
p627
NsS'vsynctimes'
p628
(lp629
sS'repetitions'
p630
I1
sS'volumelimit'
p631
F2.5
sS'triallog'
p632
(lp633
sS'stoptime'
p634
F9.0942293755369974
sS'auditory_stimulus_log'
p635
(lp636
sS'dx'
p637
(lp638
Fnan
aFnan
aFnan
aFnan
aFnan
aFnan
aFnan
aFnan
aFnan
aFnan
aFnan
aFnan
aFnan
aFnan
aFnan
aFnan
aFnan
aFnan
aFnan
aFnan
aFnan
aFnan
aFnan
aFnan
aFnan
aFnan
aFnan
aFnan
aFnan
aFnan
aFnan
aFnan
aFnan
aFnan
aFnan
aFnan
aFnan
aFnan
aFnan
aFnan
aFnan
aFnan
aFnan
aFnan
aFnan
aFnan
aFnan
aFnan
aFnan
aFnan
aFnan
aFnan
aFnan
aFnan
aFnan
aFnan
aFnan
aFnan
aFnan
aFnan
aFnan
aFnan
aFnan
aFnan
aFnan
aFnan
aFnan
aFnan
aFnan
aFnan
aFnan
aFnan
aFnan
aFnan
aFnan
aFnan
aFnan
aFnan
aFnan
aFnan
aFnan
aFnan
aFnan
aFnan
aFnan
aFnan
aFnan
aFnan
aFnan
aFnan
aFnan
aFnan
aFnan
aFnan
aFnan
aFnan
aFnan
aFnan
aFnan
aFnan
aFnan
aFnan
aFnan
aFnan
aFnan
aFnan
aFnan
aFnan
aFnan
aFnan
aFnan
aFnan
aFnan
aFnan
aFnan
aFnan
aFnan
aFnan
aFnan
aFnan
aFnan
aFnan
aFnan
aFnan
aFnan
aFnan
aFnan
aFnan
aFnan
aFnan
aFnan
aFnan
aFnan
aFnan
aFnan
aFnan
aFnan
aFnan
aFnan
aFnan
aFnan
aFnan
aFnan
aFnan
aFnan
aFnan
aFnan
aFnan
aFnan
aFnan
aFnan
aFnan
aFnan
aFnan
aFnan
aFnan
aFnan
aFnan
aFnan
aFnan
aFnan
aFnan
aFnan
aFnan
aFnan
aFnan
aFnan
aFnan
aFnan
aFnan
aFnan
aFnan
aFnan
aFnan
aFnan
aFnan
aFnan
aFnan
aFnan
aFnan
aFnan
aFnan
aFnan
aFnan
aFnan
aFnan
aFnan
aFnan
aFnan
aFnan
aFnan
aFnan
aFnan
aFnan
aFnan
aFnan
aFnan
aFnan
aFnan
aFnan
aFnan
aFnan
aFnan
aFnan
aFnan
aFnan
aFnan
aFnan
aFnan
aFnan
aFnan
aFnan
aFnan
aFnan
aFnan
aFnan
aFnan
aFnan
aFnan
aFnan
aFnan
aFnan
aFnan
aFnan
aFnan
aFnan
aFnan
aFnan
aFnan
aFnan
aFnan
aFnan
aFnan
aFnan
aFnan
aFnan
aFnan
aFnan
aFnan
aFnan
aFnan
aFnan
aFnan
aFnan
aFnan
aFnan
aFnan
aFnan
aFnan
aFnan
aFnan
aFnan
aFnan
aFnan
aFnan
aFnan
aFnan
aFnan
aFnan
aFnan
aFnan
aFnan
aFnan
aFnan
aFnan
aFnan
aFnan
aFnan
aFnan
aFnan
aFnan
aFnan
aFnan
aFnan
aFnan
aFnan
aFnan
aFnan
aFnan
aFnan
aFnan
aFnan
aFnan
aFnan
aFnan
aFnan
aFnan
aFnan
aFnan
aFnan
aFnan
aFnan
aFnan
aFnan
aFnan
aFnan
aFnan
aFnan
aFnan
aFnan
aFnan
aFnan
aFnan
aFnan
aFnan
aFnan
aFnan
aFnan
aFnan
aFnan
aFnan
aFnan
aFnan
aFnan
aFnan
aFnan
aFnan
aFnan
aFnan
aFnan
aFnan
aFnan
aFnan
aFnan
aFnan
aFnan
aFnan
aFnan
aFnan
aFnan
aFnan
aFnan
aFnan
aFnan
aFnan
aFnan
aFnan
aFnan
aFnan
aFnan
aFnan
aFnan
aFnan
aFnan
aFnan
aFnan
aFnan
aFnan
aFnan
aFnan
aFnan
aFnan
aFnan
aFnan
aFnan
aFnan
aFnan
aFnan
aFnan
aFnan
aFnan
aFnan
aFnan
aFnan
aFnan
aFnan
aFnan
aFnan
aFnan
aFnan
aFnan
aFnan
aFnan
aFnan
aFnan
aFnan
aFnan
aFnan
aFnan
aFnan
aFnan
aFnan
aFnan
aFnan
aFnan
aFnan
aFnan
aFnan
aFnan
aFnan
aFnan
aFnan
aFnan
aFnan
aFnan
aFnan
aFnan
aFnan
aFnan
aFnan
aFnan
aFnan
aFnan
aFnan
aFnan
aFnan
aFnan
aFnan
aFnan
aFnan
aFnan
aFnan
aFnan
aFnan
aFnan
aFnan
aFnan
aFnan
aFnan
aFnan
aFnan
aFnan
aFnan
aFnan
aFnan
aFnan
aFnan
aFnan
aFnan
aFnan
aFnan
aFnan
aFnan
aFnan
aFnan
aFnan
aFnan
aFnan
aFnan
aFnan
aFnan
aFnan
aFnan
aFnan
aFnan
aFnan
aFnan
aFnan
aFnan
aFnan
aFnan
aFnan
aFnan
aFnan
aFnan
aFnan
aFnan
aFnan
aFnan
aFnan
aFnan
aFnan
aFnan
aFnan
aFnan
aFnan
aFnan
aFnan
aFnan
aFnan
aFnan
aFnan
aFnan
aFnan
aFnan
aFnan
aFnan
aFnan
aFnan
aFnan
aFnan
aFnan
aFnan
aFnan
aFnan
aFnan
aFnan
aFnan
aFnan
aFnan
aFnan
aFnan
aFnan
aFnan
aFnan
aFnan
aFnan
aFnan
aFnan
aFnan
aFnan
aFnan
aFnan
aFnan
aFnan
aFnan
aFnan
aFnan
aFnan
aFnan
aFnan
aFnan
aFnan
aFnan
aFnan
aFnan
aFnan
aFnan
aFnan
aFnan
aFnan
aFnan
aFnan
aFnan
aFnan
aFnan
aFnan
aFnan
aFnan
aFnan
aFnan
aFnan
aFnan
aFnan
aFnan
aFnan
aFnan
aFnan
aFnan
aFnan
aFnan
aFnan
aFnan
aFnan
aFnan
aFnan
asS'right_response_time'
p639
F-inf
sS'starttime'
p640
F1.9956905816798098e-06
sS'trialvars'
p641
NsS'syncsqrloc'
p642
(I910
I-450
tp643
sS'sync'
p644
S"SyncSquare(autoDraw=False, autoLog=True, color=array([ 1.,  1.,  1.]), colorSpace='rgb', contrast=1.0, depth=0, interpolate=False, mask='none', maskParams=None, name='unnamed SyncSquare', opacity=1.0, ori=0.0, phase=array([ 0.,  0.]), pos=array([ 910., -450.]), rgbPedestal=array([ 0.,  0.,  0.]), sf=array([ 0.01,  0.01]), size=array([ 100.,  100.]), tex=None, texRes=128, units='pix', win=Window(...))"
p645
sS'next_trial_time'
p646
F-inf
sS'field_size'
p647
(I200
I200
tp648
sS'syncsqrfreq'
p649
I60
sS'decision'
p650
I00
sS'trial_hold'
p651
I00
sS'rewardlines'
p652
(lp653
I0
asS'trait_names'
p654
(lp655
sS'wwidth'
p656
cnumpy.core.multiarray
scalar
p657
(g568
(S'i4'
I0
I1
tRp658
(I3
S'<'
NNNI-1
I-1
I0
tbS'\x00\x05\x00\x00'
tRp659
sS'startdatetime'
p660
S'2016-07-18 10:49:40.759000'
p661
sS'syncsqrBit'
p662
I00
sS'keycontrol'
p663
I01
sS'eyedatalog'
p664
(lp665
sS'process_response'
p666
I00
sS'mouseid'
p667
S'testmouse'
p668
sS'invertdo'
p669
I00
sS'doport'
p670
I1
sS'rewardlimit'
p671
NsS'num_dots'
p672
I15
sS'performanceport'
p673
I9998
sS'lapdata'
p674
(dp675
S'commands'
p676
(lp677
sS'object'
p678
NsS'iscorrect'
p679
NsS'lickdata'
p680
NsS'laptime'
p681
NsS'posx'
p682
NsS'reward'
p683
(lp684
ssS'vsyncintervals'
p685
g565
(g566
(I0
tS'b'
tRp686
(I1
(L545L
tg568
(S'f8'
I0
I1
tRp687
(I3
S'<'
NNNI-1
I-1
I0
tbI00
S'\x00`\xaf\xcc\xde\xb10@\x00\x90\xfb\xdb\x87\xd70@\x00\x90B\x1cs\x970@\x00\xf0@\xa46\xb10@\x00x\xcd\x1c\x8b\xa20@\x00\xc8|\x96r\xab0@\x00\x00\xa9\x0fB\xa90@\x00\x00\xb6\xd9a\xa80@\x00\x98\x18a\xaa\xb50@\x00\xb0\x15\x98\xba\xcc0@\x00xc\xd7\xd8w0@\x00pG\x89\xc6\xb00@\x00\x00\xb6\xd9a\xa80@\x00`F\xbe<\x9e0@\x00(\x1f\xda\xb3\xb00@\x00\xc8\x14\xbf\xe0\xae0@\x00\xc0\x8c\xbd\xfb\x8e0@\x000\xb3n\xa8\xb80@\x00`\x84\x10I\xbb0@\x00\xb0\xd8|\xbe\xc60@\x00(\x00\xb1-\xa20@\x00\x90\x9e`\xf5\xab0@\x00@,\x02\n\xa90@\x00\xe0!\xe76\xa70@\x00X\xfc\x0ed\x9b0@\x00\x08\xb7\xda.\xbd0@\x000\xc2(\xde\x820@\x00\x00N\x02\xd0\xab0@\x00\xa8C\xb1\xb9\xa70@\x00X\xdfS\xfe\xba0@\x00\xc02\xe7\x99\xa80@\x00\xf8\x10\x1d\x17\xa80@\x00\xc02\xe7\x99\xa80@\x00\xa0\x06\xcc\x00\xa40@\x00\xe8\xe4\x95\xf7\x9e0@\x00\xe0\xd88+\xb90@\x00\x80r\xd9\xd5\xa20@\x00\x00\xd4\xcb\xd7\x9f0@\x00\xc02\xe7\x99\xa80@\x00Hv\xb1\xe2\xab0@\x00\x88\xaf\xbe\x8e\xa60@\x00\x10\xe2`\x81\xb10@\x00\xf8.\x0f\x8d\x9f0@\x00`\x1c9\xb7\xbe0@\x00\x18\x00\x1d\xb4\xa60@\x00@9\xcc)\xa80@\x00pFR\xb6\x990@\x00\xe0\xb9\x0f\xa5\xaa0@\x00\xd8\xc6\x0f\x08\xac0@\x00\xe8!\xb1\xf3\xa40@\x00 \x98\x0f\xdf\xa70@\x00\x08=\xa46\xb10@\x00\x18\x1e\x0f*\x9e0@\x000\x1em`\x970@\x00pt\xb3|\xd50@\x00\xc0\xf5\xcb\x9d\xa20@\x00\x10yR\xdf\x9d0@\x00\xd03\xb2#\xbb0@\x00P\xed\x8aq\xd30@\x00`\xed\xa0\xe0k0@\x00`\xec\xe7\xda\xb70@\x00\xa8\xf9\xcb\x9d\xa20@\x00\x00\xa6\xe8\x1b\xc70@\x00\xc0%\x1dz\xa90@\x00\xb0\xe8m\x04\xa80@\x00\xe8k\x96\x0f\xaa0@\x00x\n8\x87\xa80@\x00`\xbf\xbd$\x930@\x00\x80\xb0+\xe2\xbf0@\x00\xf0\x10SZ\xaa0@\x00\xf8\xa7\x0eu\x940@\x00\xa0\x07\x03\x11\xbb0@\x008,8M\xab0@\x00\xc8\x9a\x88\xe8\xa20@\x00\x10\xf3\x88\xd7\xa90@\x00 h\xbe\x02\xa10@\x008;p\x8d\xd80@\x00\xc8~\x86\x88v0@\x00\x88\x9e\x968\xae0@\x00xGS\x83\xae0@\x00\xe0\x03\xf5\xc0\xaf0@\x00\xb0\xe8m\x04\xa80@\x00\x00N\x02\xd0\xab0@\x00 \xa5\xd9\xfe\xa60@\x00X(\x02\n\xa90@\x00\xd0\x14\x89\x9d\xac0@\x008\x87E\xbf\xa80@\x00\x80\xaf\xf4\xd1\xa80@\x00\x18J\x02\xd0\xab0@\x00\xe8?\xa3i\x9c0@\x00\xd0\x14\x89\x9d\xac0@\x00@\xb3\x02"\xb40@\x00\xf0\xc6m>\xa50@\x00\x00\x00\xbf}\xad0@\x00\x90\x17`\xdd\xa00@\x00p\x84\xa4\xc2\xb60@\x00hF\x88\xf9\x9b0@\x00\x08N\xcc\x8c\xa90@\x00\xf0\x10SZ\xaa0@\x00\xd0\x13R\x8d\x950@\x00\x10\x98{e\xac0@\x00\xa0\x9e\xf4n\xa70@\x00`e\xe7\xc2\xac0@\x00 J\xcc\x8c\xa90@\x00\x08\xb6\xa3\x1e\xa60@\x00\x080\xda\x16\xb20@\x00\xe0\xa8\xe7N\xb20@\x00@+\xcb\xf9\x910@\x00H\xdf\xbf\x84\xbf0@\x00\x08N\xcc\x8c\xa90@\x00\x00z\xf5u\xb90@\x00H\x0cl0\x810@\x00\xb8QFc\xb90@\x00\x00\x8b\x1d\xcc\xb10@\x00\xc0?\xb1\xb9\xa70@\x00x\n8\x87\xa80@\x00\xa8\xdb\xd9\'\xab0@\x00\x10\x1eEm\xa00@\x00\x90\xdb{\xf1\xb10@\x00\xb0\x8d`\x92\xaa0@\x00x\xfc6W\x920@\x00`\n\xdaP\xaf0@\x00\x90\xf9mg\xa90@\x000\xefR\x94\xa70@\x000\xe2\x88t\xa80@\x00(\xa5\xa3\xbb\xa40@\x00\x00\xf3\xf4]\xae0@\x00h\xde\xb0g\x9f0@\x00\xa0\xd8\xe8D\xcb0@\x00\x88\xeb\xa2z\x950@\x00xeE\xf9\xa50@\x00X\x1b8\xea\xa90@\x00P\xc0`\xbb\xae0@\x000\xb27\x98\xa10@\x00\xb8%S\xbd\xab0@\x00 \x87\xe7\x88\xaf0@\x00\x080\xda\x16\xb20@\x00\x18\x1c\xa1\tp0@\x00(\x88\xe8U\xc40@\x00\x00l\xf4E\xa30@\x00Pv{\x9f\xa90@\x00\x80\xbc\xbe\xf1\xa70@\x008\xe2R1\xa60@\x00\x08\x97z\x98\x970@\x00\x98\t\xa7t\xeb0@\x00`V\xaf\x82\x7f0@\x00h\xcd\x88\x11\xa70@\x00\xd0|`/\xa90@\x00\xf8\x03S\xf7\xa80@\x00\x10[`i\xa60@\x00\xa8\xe8\xa3G\xaa0@\x00\xd8!\x1dz\xa90@\x00\x10\xf3\x88\xd7\xa90@\x00\xd0|`/\xa90@\x00\xc02\xe7\x99\xa80@\x00\xe0\xb9\x0f\xa5\xaa0@\x00@9\xcc)\xa80@\x00\x00\xa9\x0fB\xa90@\x00Hv\xb1\xe2\xab0@\x00h\xcd\x88\x11\xa70@\x00\xc0\x06\xf4\xf3\x9a0@\x00P\xa175\xa00@\x00\xa8\x9e\xbe+\xa50@\x00 \xe3+\x0b\xc40@\x00\x98\xab\xf4\xd1\xa80@\x00\x88T\xb1\x1c\xa90@\x00\x80\xaf\xf4\xd1\xa80@\x00Pv{\x9f\xa90@\x00\xb0\xe8m\x04\xa80@\x00\xc0\xd7\xd9\'\xab0@\x00\xc02\xe7\x99\xa80@\x00\x10\xf3\x88\xd7\xa90@\x00\x98\x9e*\xb2\xa90@\x00\x18\xb5\x00\x88\x8a0@\x00\x18\xe3aN\xc60@\x00`\xc0\xf44\xaa0@\x00\xc8\xd7\xa3\xe4\xa80@\x00Pv{\x9f\xa90@\x00@\xde\xbe\xb7\xaa0@\x00\xc8\xd7\xa3\xe4\xa80@\x00(\x87\xb1E\xad0@\x00\x08\x11\xb1\x90\xa30@\x00\xd0\x04\x98W\xcb0@\x00\xb8%S\xbd\xab0@\x00h\xc0\xbe\xf1\xa70@\x00H\xde\x88t\xa80@\x00\xb0\xe8m\x04\xa80@\x00\xf0\x03\x89:\xab0@\x0089\x02m\xaa0@\x00\xf0^\x96\xac\xa80@\x00h\xcd\x88\x11\xa70@\x00\xb0am\xec\x9c0@\x00\xb0\x07\x97\x8a\xb60@\x00\xc0?\xb1\xb9\xa70@\x00\x18\x98E"\xaa0@\x00X\xa1\x01\xf2\x9d0@\x00\xc8\xf6\xccj\xb70@\x000\xe2\x88t\xa80@\x008+\x01=\x940@\x00\xc83\xe8f\xbd0@\x00\xc02\xe7\x99\xa80@\x00H\xde\x88t\xa80@\x00Hv\xb1\xe2\xab0@\x00\x00\xb6\xd9a\xa80@\x00Pv{\x9f\xa90@\x00\x08\xb6\xa3\x1e\xa60@\x00Pv{\x9f\xa90@\x00\xa0C\xe7\xfc\xa90@\x00\xf0^\x96\xac\xa80@\x00\xe0\xc6\xd9\xc4\xa90@\x00\xf8\x10\x1d\x17\xa80@\x008\xd1*\xdb\xad0@\x00\x10\xf3\x88\xd7\xa90@\x00\x00\xb6\xd9a\xa80@\x000\xefR\x94\xa70@\x00\xd8|*\xec\xa60@\x00\xe0\xb9\x0f\xa5\xaa0@\x00prE\\\xa70@\x00\xa0\x9e\xf4n\xa70@\x00\xa0a\xd9r\xa10@\x00@\x87\x0f|\xa60@\x00\x88\x17\x96 \xa30@\x00\x88\xdb\xb14\xb40@\x00X9*`\xa10@\x008,8M\xab0@\x00@9\xcc)\xa80@\x00P\xd1\x88\x11\xa70@\x00\xd8!\x1dz\xa90@\x00(\x1f\xda\xb3\xb00@\x00\x98\x8d\x02\\\xb10@\x00\xa8\xf8\x94\x8d\x8b0@\x00\xa0&,\x97\xc90@\x00\x00\xb6\xd9a\xa80@\x00\xd8\x14SZ\xaa0@\x00X(\x02\n\xa90@\x00\x80\x08\x94#x0@\x000\x96\xb3B\xd80@\x00\x80\xa2*\xb2\xa90@\x00\xa0C\xe7\xfc\xa90@\x00H\xbf_\xee\x990@\x00\xa8b\xda?\xb60@\x00\xf8\xa8E\x85\xab0@\x00X\x83\x0f|\xa60@\x00\x10\xf3\x88\xd7\xa90@\x00\xb82\x1d\xdd\xaa0@\x00\xe0?\xd9\xac\x9e0@\x000\x0e|\x1a\xb60@\x00\xb8\x8d*O\xa80@\x00\x98\xf97$\xa70@\x00\xb8\x8d*O\xa80@\x00\xa8\xe8\xa3G\xaa0@\x00`\xc0\xf44\xaa0@\x00pe{<\xa80@\x00\x18y\x1c\x9c\x9b0@\x00\x00\xd5\x02\xe8\xb60@\x00\x10\x00S\xf7\xa80@\x00\xe8k\x96\x0f\xaa0@\x00h\xc0\xbe\xf1\xa70@\x00 \x1d\xa2\xd6\x840@\x00\xf0\x03\x89:\xab0@\x00P\xdeR1\xa60@\x00\xf8\xa8E\x85\xab0@\x00\xb0\xc9D~\x990@\x00\x18\xe2*>\xaf0@\x00x\x84n\x7f\xb40@\x008\x94\x0f\xdf\xa70@\x00\xb8\x8d*O\xa80@\x00\xa8\xe8\xa3G\xaa0@\x00\x18\xf3R\x94\xa70@\x00\xe0\xc5\xa2\xb4\x920@\x00\x88U\xe8,\xc00@\x00 J\xcc\x8c\xa90@\x00\x80\xaf\xf4\xd1\xa80@\x00\xd0|`/\xa90@\x00\x98\x9e*\xb2\xa90@\x000\xe2\x88t\xa80@\x00\xb0\x8d`\x92\xaa0@\x00\xb8\x06*7\x9d0@\x00 \xc4\x02\x85\xb50@\x00\xa0\x06\xcc\x00\xa40@\x00\xa8\x80\xcc\xb5\xad0@\x00@\x94\xd9\x9b\xa50@\x00\xf8M8\x13\xae0@\x00\xe8\x89\x88\x85\xa10@\x00\xc0o\x02\x96\xae0@\x00\x08N\xcc\x8c\xa90@\x00\xa0\xe7\xa2z\x950@\x00\x90U\xb2\xe9\xbd0@\x00\xc8\xd7\xa3\xe4\xa80@\x00he\xb1\x7f\xaa0@\x00`\x1a\xcb\x96\x900@\x00\x00\xb7\x10r\xbf0@\x00\xd0!S\xbd\xab0@\x00\xe0]\xcb"\x960@\x00\x90\xbd\x89{\xba0@\x000\x00{\xea\x9f0@\x00\xe8\x10\x89\x9d\xac0@\x00\xf8\xf4\x98\xc1\xde0@\x00x\xfb\xffF{0@\x00\x18\x00\x1d\xb4\xa60@\x00\x98S\x0e\x86\x8d0@\x00\x18\xf0+n\xc50@\x00@,\x02\n\xa90@\x00(j\xf6\xdf\xcc0@\x00\x88T\xb1\x1c\xa90@\x00P\xdeR1\xa60@\x00\xc8|\x96r\xab0@\x00x\xaf*\x15\xab0@\x00\x98\x90)\x82\x930@\x00`\n\xdaP\xaf0@\x00\xe0|\xf4\xa8\xa40@\x00\x18\xe2*>\xaf0@\x00h\x1b\xccc\xa50@\x00\x08z\xbf2\xb70@\x00`\n\xdaP\xaf0@\x00\xf0k`\xcc\xa70@\x00\x88\xaf\xbe\x8e\xa60@\x00p\t7\xba\x930@\x00\x00\xe6*>\xaf0@\x00Hv\xb1\xe2\xab0@\x00\x90\x068\x87\xa80@\x00pe{<\xa80@\x00\x88\x17\x96 \xa30@\x00\x88s\xda\xa2\xb70@\x00`\xfd\x0f1\xb00@\x00P9`\xa3\xa30@\x00\xb0\xd7E\xae\xaf0@\x00HI\x87,\x870@\x00\xf8\x98T?\xca0@\x00\xb8\x9eR\xa5\xa00@\x00\xb8P\x0fS\xa20@\x00\xe0N\x11\xed\xcb0@\x00\xd8P7F\x990@\x008\xef\x1cQ\xa50@\x00he\xb1\x7f\xaa0@\x00@W\xbe\x9f\x9f0@\x00p\xec{T\xb30@\x00\xd0\xf5_\x17\x9e0@\x00\xa0%\xf5\x86\xb20@\x00\x98a\x0f\xb6\xa30@\x00\xf8k*\x89\xa50@\x00@\xe2\x1c\xee\xa30@\x00\xc0\xd7\xd9\'\xab0@\x00\xb0\xe8m\x04\xa80@\x00\xc8\xd7\xa3\xe4\xa80@\x00\xf8\x89\x1c\xff\x9c0@\x00\x98\x9fa\xc2\xc00@\x000\x94E"\xaa0@\x00\xd0\xf6\x96\'\xb50@\x00@h\xe6\xf5\x970@\x00pTS\xe6\xaf0@\x000\xe2\x88t\xa80@\x00HW\x88\\\x9d0@\x00\xf0\xc6m>\xa50@\x00\xe0k\xccR\xac0@\x00\xf8^`i\xa60@\x00\xa0C\xe7\xfc\xa90@\x00x\xaf*\x15\xab0@\x00X(\x02\n\xa90@\x00\x08\xf3\xbe\x1a\xac0@\x00\x88\xaf\xbe\x8e\xa60@\x00 =\x02m\xaa0@\x00h\xa0^[\x820@\x000\x94E"\xaa0@\x00\xb0\x80\x96r\xab0@\x00 \x86\xb0x\x980@\x00\x10@\x13$\xf40@\x00\x10w\xe4\xbeo0@\x00\xd0\xd7m\xa1\xa60@\x00X\x1b8\xea\xa90@\x00h\xc0\xbe\xf1\xa70@\x00x\n8\x87\xa80@\x00\x80T\xe7_\xab0@\x00\xf0k`\xcc\xa70@\x00\xb82\x1d\xdd\xaa0@\x00\xe8\xc6\xa3\x81\xa70@\x00\x00\xa9\x0fB\xa90@\x00 h\xbe\x02\xa10@\x00\xb8\x14+g\xb30@\x00H,\xcc\xc6\xa60@\x00\x00y\xbee\xa20@\x00\x100\xa4\xd3\xaf0@\x00\xd0!S\xbd\xab0@\x00\x98\xfan4\xbe0@\x00\x88\xfa\xda\xba\xc20@\x00\xc8\x04P\x90j0@\x00\x88b\xb2L\xbf0@\x00\xd0\xb9{+\xaf0@\x00he\xb1\x7f\xaa0@\x00Huz\xd2\x940@\x00p\xa2\x968\xae0@\x00\xd8!\x1dz\xa90@\x00\xc0\xf5\xcb\x9d\xa20@\x00\x80\xec\x0f\xce\xae0@\x00`\xc0\xf44\xaa0@\x00\xc82\xb1V\xa60@\x00\xc8|\x96r\xab0@\x00\xa8\x9e\xbe+\xa50@\x00\xd0\xc6EK\xae0@\x00\xb8\x8d*O\xa80@\x00\x08\x8b\xe7\x88\xaf0@\x008\xd0\xf3\xca\x960@\x008\xd1*\xdb\xad0@\x00@:\x03:\xbf0@\x00\xc0P\xd9\x0f\xa00@\x00\xc8\x8d\xbe\xc8\xa30@\x00@,\x02\n\xa90@\x00\xd0^n\xb9\xb10@\x00\xe8\x89\x88\x85\xa10@\x00\xc02\xe7\x99\xa80@\x00\xf0\x03\x89:\xab0@\x00\xa0\x9e\xf4n\xa70@\x00`\xcd\xbeT\xa90@\x00p\xce\x89\xde\xbb0@\x00`W\xe6\x92\x960@\x00\x08[\x96\xac\xa80@\x00h\xc0\xbe\xf1\xa70@\x00X*p*\xd70@\x00\x18j\xe4[n0@\x00\xa0&,\x97\xc90@\x00h\xebz\x87\x9e0@\x00\xd8\x03+\x04\xb20@\x00\x001Gj\xcb0@\x00\x08\x00\x89:\xab0@\x00@\x86\xd8k\x8f0@\x00\xe8\x8a\xbf\x95\xb80@\x008iSI\xb10@\x00h\xcd\x88\x11\xa70@\x00\xa0\xdb\x0fk\xad0@\x00@\x94\xd9\x9b\xa50@\x00\xd8^8v\xaf0@\x00 \x00\xe7p\xa40@\x00\xe0\xb9\x0f\xa5\xaa0@\x000\x94E"\xaa0@\x00\x18x\xe5\x8b\x840@\x008\xf1\x8aq\xd30@\x00\x18\x10\x0e\xfa\x870@\x00\x90%a\r\xb70@\x008\x87E\xbf\xa80@\x00P\x1bn-\xac0@\x00\x08=\xa46\xb10@\x00\x08[\x96\xac\xa80@\x00he\xb1\x7f\xaa0@\x00\xa0q\xca\xb8\x820@\x00\x10>\xa5\x03\xc60@\x00\x00\xb6\xd9a\xa80@\x00\xe0\xb9\x0f\xa5\xaa0@\x00\xd0\x03aG\xb40@\x00\xc0\x8d\xf4\x0b\xa60@\x00\xe0|\xf4\xa8\xa40@\x00\x00\x98\xe7\xeb\xb00@\x00\xb0am\xec\x9c0@\x00\xd0\x02*7\x9d0@\x00Hv\xb1\xe2\xab0@\x00\xb8\xe9n\xd1\xbc0@\x00\x10<7\xe3\x970@\x00\xe0}+\xb9\xbb0@\x00P\xa175\xa00@\x00\x98\x808<\xb20@\x00\x80\x90\xcbK\x9a0@\x00(\x01\xe8=\xb90@\x00x\x17\x02\xa7\xa70@\x00([\xbe\x9f\x9f0@\x00\x98\x808<\xb20@\x00\xa0C\xe7\xfc\xa90@\x00H\xd1\xbeT\xa90@\x00x\n8\x87\xa80@\x00pdD,\x910@\x00\xb8\x9cb\x8f\xd50@\x00\xd0\xc85ay0@\x00\xb0\xd7E\xae\xaf0@\x00\xc8\x14\xbf\xe0\xae0@\x00\x18\x98E"\xaa0@\x00\x90\x18\x97\xed\xb70@\x00\x80\x90\xcbK\x9a0@\x00\x18\xa5\x0fB\xa90@\x008\xef\x1cQ\xa50@\x00\x08\xd5\xcc\xa4\xb40@\x00`\xde\xe6\xaa\xa10@\x00XvE\\\xa70@\x00\xa02\xbf\xa6\xb10@\x00\xe0\xf6*\xa1\xb00@\x00\x90\x068\x87\xa80@\x00\xd0\xabz\xfb\x980@\x00\xc0\xd7\xd9\'\xab0@\x00Pv{\x9f\xa90@\x008\xef\x1cQ\xa50@\x000\xd1`\x1e\xb00@\x00Xu\x0eL\x900@\x00x\n8\x87\xa80@\x00he\xb1\x7f\xaa0@\x00\x90T{\xd9\xa60@\x00\xa8\x8d\x96\xd5\xac0@\x00@\xd1\xf4\x97\xab0@\x00\x88\x91\xcc\x18\xaf0@\x00\xc02\xe7\x99\xa80@\x00\x90\xf9mg\xa90@\x00\x80\x91\x02\\\xb10@\x00@\xef\xe6\r\xa30@\x00x\x17\x02\xa7\xa70@\x00\xa8\xe8\xa3G\xaa0@\x00 =\x02m\xaa0@\x00\xf8\xa7\x0eu\x940@\x00\x98\x079T\xbd0@\x00\xb0\x80\x96r\xab0@\x00\x80\x17\xccc\xa50@\x00\xd0o\x96\x0f\xaa0@\x008\xef\x1cQ\xa50@\x000\x87{\x02\xab0@\x00`(\xcc\xc6\xa60@\x00\x90\x9e`\xf5\xab0@\x00\x88T\xb1\x1c\xa90@\x00 \xe2\xf4\xfa\xac0@\x00\x80\n\x02D\xa60@\x00\x00\x8a\xe6\xbb\x9a0@\x00\xb0\x8d`\x92\xaa0@\x00\xd0\xd7m\xa1\xa60@\x008\xb38e\xb60@\x000\xefR\x94\xa70@\x00\x88\n\xcc\x00\xa40@\x00\xb0Q|\xa6\xbb0@\x00\x10\x1eEm\xa00@\x00\xf8\x03S\xf7\xa80@\x00`F\xbe<\x9e0@\x00h\xec\xb1\x97\xb50@\x00\xb0\xe8m\x04\xa80@\x00\x90\xf9mg\xa90@\x00\x00N\x02\xd0\xab0@\x00p\xebDD\x9c0@\x00\xc0\x14\xf5#\xb10@\x00`\xa1\xcb\xae\x9b0@\x00\xd8o`\xcc\xa70@\x00\xd0|`/\xa90@\x00@v\xe7%\xae0@\x00\xe8!\xb1\xf3\xa40@\x00\x10\x00S\xf7\xa80@\x00\x885\x88\x96\x9a0@\x00\x98\x808<\xb20@\x00\x90\xfa\xa4w\xc00@\x00\xc8\xd7\xa3\xe4\xa80@\x00\xf8\x03S\xf7\xa80@\x00\xb0\x8d`\x92\xaa0@\x00\xf0\x11\x8aj\xc10@\x00`\xbf\xbd$\x930@\x00X\x1co\xfa\xc00@'
tbsS'vsynccount'
p688
I546
sS'response_time'
p689
F-inf
sS'stage'
p690
NsS'keylog'
p691
(lp692
sS'airpuffs'
p693
g565
(g566
(I0
tS'b'
tRp694
(I1
(L0L
tg687
I00
S''
tbsS'trackeyepos'
p695
I00
sS'timer'
p696
NsS'commandrecord'
p697
(lp698
sS'dropped_frame_threshold'
p699
I100
sS'rewardport'
p700
I1
sS'airpuffline'
p701
I1
sS'mask_logged'
p702
I00
sS'trialcount'
p703
I0
sS'encodervsigchannel'
p704
I1
sS'pos'
p705
(I-25
I0
tp706
sS'message_color'
p707
I-1
sS'stim_on_time'
p708
NsS'eyetrackerip'
p709
S'W7DT710861'
p710
sS'stopdatetime'
p711
S'2016-07-18 10:49:50.101000'
p712
sS'publishing'
p713
I00
sS'left_response_time'
p714
F-inf
sS'laps'
p715
g565
(g566
(I0
tS'b'
tRp716
(I1
(L0L
tg687
I00
S''
tbsS'last_frame'
p717
NsS'params'
p718
(dp719
S'performanceip'
p720
S'w7dtmj37pct'
p721
sg647
g648
sg672
I15
sg667
g668
sS'shape_thickness'
p722
I90
sS'duration_off'
p723
I1
sS'dot_size'
p724
I46
sS'show_clock'
p725
I00
sg4
I01
sg624
I1
sg673
I9998
sS'gray_periods'
p726
I1
sg630
I1
sS'eyetracker'
p727
I01
sS'viewing_distance'
p728
I15
sS'eyetrackerIP'
p729
g710
ssS'nidevice'
p730
S'Dev1'
p731
sS'logdir'
p732
S'C:/Users/drewm/Documents/GitHub/psychopy-scripts'
p733
sS'rewards'
p734
g565
(g566
(I0
tS'b'
tRp735
(I1
(L0L
tg687
I00
S''
tbsg726
I1
sS'encoder'
p736
NsS'hide_mouse'
p737
I01
sS'active'
p738
I00
sS'encodervinchannel'
p739
I0
sS'dropped_frame_count'
p740
I0
sS'pub_port'
p741
S'12001'
p742
sS'terrainlog'
p743
(lp744
sS'airpuff'
p745
Nsg722
I90
sS'diport'
p746
I0
sS'ai'
p747
NsS'ip'
p748
S'*'
sS'syncpulselines'
p749
(lp750
I3
aI4
aI5
asg724
I46
sS'ao'
p751
NsS'paused'
p752
I00
sS'threaded_async'
p753
I00
sS'show_text_time'
p754
F-inf
sS'unpickleable'
p755
(lp756
S'datastream'
p757
aS'shapes'
p758
aS'dots'
p759
aS'controlstream'
p760
aS'stimuli'
p761
asS'syncsqr'
p762
I01
sS'wheight'
p763
g657
(g658
S'\x00\x04\x00\x00'
tRp764
sS'fps'
p765
F60
sS'moviefilename'
p766
Nsg720
g721
sS'start_datetime'
p767
NsS'keys'
p768
I00
sg725
I00
sg727
S'<aibs.Eyetracking.EyetrackerClient.Client object at 0x0000000009C22DD8>'
p769
sS'syncsqrsize'
p770
(I100
I100
tp771
sS'syncpulseport'
p772
I1
sS'lickports'
p773
I1
sS'backupdir'
p774
NsS'task'
p775
S'DetectionOfChange'
p776
sS'responselog'
p777
(lp778
sS'show_stim'
p779
I00
sS'lickSensor'
p780
NsS'rep_port'
p781
I12000
sS'vin'
p782
g565
(g566
(I0
tS'b'
tRp783
(I1
(L546L
tg593
I00
S'\x00~\x00~\x00~\x00~\x00~\x00~\x00~\x00~\x00~\x00~\x00~\x00~\x00~\x00~\x00~\x00~\x00~\x00~\x00~\x00~\x00~\x00~\x00~\x00~\x00~\x00~\x00~\x00~\x00~\x00~\x00~\x00~\x00~\x00~\x00~\x00~\x00~\x00~\x00~\x00~\x00~\x00~\x00~\x00~\x00~\x00~\x00~\x00~\x00~\x00~\x00~\x00~\x00~\x00~\x00~\x00~\x00~\x00~\x00~\x00~\x00~\x00~\x00~\x00~\x00~\x00~\x00~\x00~\x00~\x00~\x00~\x00~\x00~\x00~\x00~\x00~\x00~\x00~\x00~\x00~\x00~\x00~\x00~\x00~\x00~\x00~\x00~\x00~\x00~\x00~\x00~\x00~\x00~\x00~\x00~\x00~\x00~\x00~\x00~\x00~\x00~\x00~\x00~\x00~\x00~\x00~\x00~\x00~\x00~\x00~\x00~\x00~\x00~\x00~\x00~\x00~\x00~\x00~\x00~\x00~\x00~\x00~\x00~\x00~\x00~\x00~\x00~\x00~\x00~\x00~\x00~\x00~\x00~\x00~\x00~\x00~\x00~\x00~\x00~\x00~\x00~\x00~\x00~\x00~\x00~\x00~\x00~\x00~\x00~\x00~\x00~\x00~\x00~\x00~\x00~\x00~\x00~\x00~\x00~\x00~\x00~\x00~\x00~\x00~\x00~\x00~\x00~\x00~\x00~\x00~\x00~\x00~\x00~\x00~\x00~\x00~\x00~\x00~\x00~\x00~\x00~\x00~\x00~\x00~\x00~\x00~\x00~\x00~\x00~\x00~\x00~\x00~\x00~\x00~\x00~\x00~\x00~\x00~\x00~\x00~\x00~\x00~\x00~\x00~\x00~\x00~\x00~\x00~\x00~\x00~\x00~\x00~\x00~\x00~\x00~\x00~\x00~\x00~\x00~\x00~\x00~\x00~\x00~\x00~\x00~\x00~\x00~\x00~\x00~\x00~\x00~\x00~\x00~\x00~\x00~\x00~\x00~\x00~\x00~\x00~\x00~\x00~\x00~\x00~\x00~\x00~\x00~\x00~\x00~\x00~\x00~\x00~\x00~\x00~\x00~\x00~\x00~\x00~\x00~\x00~\x00~\x00~\x00~\x00~\x00~\x00~\x00~\x00~\x00~\x00~\x00~\x00~\x00~\x00~\x00~\x00~\x00~\x00~\x00~\x00~\x00~\x00~\x00~\x00~\x00~\x00~\x00~\x00~\x00~\x00~\x00~\x00~\x00~\x00~\x00~\x00~\x00~\x00~\x00~\x00~\x00~\x00~\x00~\x00~\x00~\x00~\x00~\x00~\x00~\x00~\x00~\x00~\x00~\x00~\x00~\x00~\x00~\x00~\x00~\x00~\x00~\x00~\x00~\x00~\x00~\x00~\x00~\x00~\x00~\x00~\x00~\x00~\x00~\x00~\x00~\x00~\x00~\x00~\x00~\x00~\x00~\x00~\x00~\x00~\x00~\x00~\x00~\x00~\x00~\x00~\x00~\x00~\x00~\x00~\x00~\x00~\x00~\x00~\x00~\x00~\x00~\x00~\x00~\x00~\x00~\x00~\x00~\x00~\x00~\x00~\x00~\x00~\x00~\x00~\x00~\x00~\x00~\x00~\x00~\x00~\x00~\x00~\x00~\x00~\x00~\x00~\x00~\x00~\x00~\x00~\x00~\x00~\x00~\x00~\x00~\x00~\x00~\x00~\x00~\x00~\x00~\x00~\x00~\x00~\x00~\x00~\x00~\x00~\x00~\x00~\x00~\x00~\x00~\x00~\x00~\x00~\x00~\x00~\x00~\x00~\x00~\x00~\x00~\x00~\x00~\x00~\x00~\x00~\x00~\x00~\x00~\x00~\x00~\x00~\x00~\x00~\x00~\x00~\x00~\x00~\x00~\x00~\x00~\x00~\x00~\x00~\x00~\x00~\x00~\x00~\x00~\x00~\x00~\x00~\x00~\x00~\x00~\x00~\x00~\x00~\x00~\x00~\x00~\x00~\x00~\x00~\x00~\x00~\x00~\x00~\x00~\x00~\x00~\x00~\x00~\x00~\x00~\x00~\x00~\x00~\x00~\x00~\x00~\x00~\x00~\x00~\x00~\x00~\x00~\x00~\x00~\x00~\x00~\x00~\x00~\x00~\x00~\x00~\x00~\x00~\x00~\x00~\x00~\x00~\x00~\x00~\x00~\x00~\x00~\x00~\x00~\x00~\x00~\x00~\x00~\x00~\x00~\x00~\x00~\x00~\x00~\x00~\x00~\x00~\x00~\x00~\x00~\x00~\x00~\x00~\x00~\x00~\x00~\x00~\x00~\x00~\x00~\x00~\x00~\x00~\x00~\x00~\x00~\x00~\x00~\x00~'
tbsg683
Nsg723
I1
s.