(dp1
S'eyetrackerport'
p2
I10000
sS'sweepBit'
p3
I3
sS'random'
p4
I01
sS'stimuluslog'
p5
(lp6
(dp7
S'gray_period'
p8
I00
sS'last_frame_interval'
p9
F0
sS'time'
p10
F0.00055679763590887887
sS'frame'
p11
I0
sS'repetition'
p12
I0
sS'stimuli_type'
p13
S'motion'
p14
sS'stimuli_id'
p15
I19
sS'stimuli shown'
p16
I01
sa(dp17
g8
I00
sg9
F0
sg10
F0.013588086070740246
sg11
I1
sg12
I0
sg13
g14
sg15
I19
sg16
I01
sa(dp18
g8
I00
sg9
F0.016663730150867195
sg10
F0.030232144415094808
sg11
I2
sg12
I0
sg13
g14
sg15
I19
sg16
I01
sa(dp19
g8
I00
sg9
F0.016734149513467855
sg10
F0.047042415264513693
sg11
I3
sg12
I0
sg13
g14
sg15
I19
sg16
I01
sa(dp20
g8
I00
sg9
F0.016762659377491218
sg10
F0.063779700863051403
sg11
I4
sg12
I0
sg13
g14
sg15
I19
sg16
I01
sa(dp21
g8
I00
sg9
F0.016657172882332816
sg10
F0.080451128676941153
sg11
I5
sg12
I0
sg13
g14
sg15
I19
sg16
I01
sa(dp22
g8
I00
sg9
F0.016517759649104846
sg10
F0.096950071816536365
sg11
I6
sg12
I0
sg13
g14
sg15
I19
sg16
I01
sa(dp23
g8
I00
sg9
F0.016807990060442535
sg10
F0.11376148306044342
sg11
I7
sg12
I0
sg13
g14
sg15
I19
sg16
I01
sa(dp24
g8
I00
sg9
F0.016695376099050918
sg10
F0.13045856975168135
sg11
I8
sg12
I0
sg13
g14
sg15
I19
sg16
I01
sa(dp25
g8
I00
sg9
F0.016625526934149093
sg10
F0.14708438178422512
sg11
I9
sg12
I0
sg13
g14
sg15
I19
sg16
I01
sa(dp26
g8
I00
sg9
F0.016628663018309453
sg10
F0.1637464013429053
sg11
I10
sg12
I0
sg13
g14
sg15
I19
sg16
I01
sa(dp27
g8
I00
sg9
F0.016692810211679898
sg10
F0.18040499971812096
sg11
I11
sg12
I0
sg13
g14
sg15
I19
sg16
I01
sa(dp28
g8
I00
sg9
F0.016657172881423321
sg10
F0.19706359809333662
sg11
I12
sg12
I0
sg13
g14
sg15
I19
sg16
I01
sa(dp29
g8
I00
sg9
F0.016658598376125155
sg10
F0.21380915155259572
sg11
I13
sg12
I0
sg13
g14
sg15
I19
sg16
I01
sa(dp30
g8
I00
sg9
F0.016639496766401862
sg10
F0.23044950361509109
sg11
I14
sg12
I0
sg13
g14
sg15
I19
sg16
I01
sa(dp31
g8
I00
sg9
F0.016693380408469238
sg10
F0.24714031813618931
sg11
I15
sg12
I0
sg13
g14
sg15
I19
sg16
I01
sa(dp32
g8
I00
sg9
F0.01666487054535537
sg10
F0.26380604397763818
sg11
I16
sg12
I0
sg13
g14
sg15
I19
sg16
I01
sa(dp33
g8
I00
sg9
F0.016663159953168361
sg10
F0.2804686337340172
sg11
I17
sg12
I0
sg13
g14
sg15
I19
sg16
I01
sa(dp34
g8
I00
sg9
F0.016700222776307783
sg10
F0.29715346118337038
sg11
I18
sg12
I0
sg13
g14
sg15
I19
sg16
I01
sa(dp35
g8
I00
sg9
F0.016729873033909826
sg10
F0.31389587855755963
sg11
I19
sg12
I0
sg13
g14
sg15
I19
sg16
I01
sa(dp36
g8
I00
sg9
F0.016546839710827044
sg10
F0.33046894734161469
sg11
I20
sg12
I0
sg13
g14
sg15
I19
sg16
I01
sa(dp37
g8
I00
sg9
F0.016726736948839971
sg10
F0.34715719597534189
sg11
I21
sg12
I0
sg13
g14
sg15
I19
sg16
I01
sa(dp38
g8
I00
sg9
F0.016658883473610331
sg10
F0.36381465395606938
sg11
I22
sg12
I0
sg13
g14
sg15
I19
sg16
I01
sa(dp39
g8
I00
sg9
F0.01666686623593705
sg10
F0.38049349433458701
sg11
I23
sg12
I0
sg13
g14
sg15
I19
sg16
I01
sa(dp40
g8
I00
sg9
F0.016582191940869961
sg10
F0.39706285683678288
sg11
I24
sg12
I0
sg13
g14
sg15
I19
sg16
I01
sa(dp41
g8
I00
sg9
F0.016866435280462611
sg10
F0.41392872192045616
sg11
I25
sg12
I0
sg13
g14
sg15
I19
sg16
I01
sa(dp42
g8
I00
sg9
F0.016502934520758572
sg10
F0.43042994584902772
sg11
I26
sg12
I0
sg13
g14
sg15
I19
sg16
I01
sa(dp43
g8
I00
sg9
F0.01666287485477369
sg10
F0.4470965269856606
sg11
I27
sg12
I0
sg13
g14
sg15
I19
sg16
I01
sa(dp44
g8
I00
sg9
F0.016683401956470334
sg10
F0.46377764815315459
sg11
I28
sg12
I0
sg13
g14
sg15
I19
sg16
I01
sa(dp45
g8
I00
sg9
F0.016658883473610331
sg10
F0.48043824221895193
sg11
I29
sg12
I0
sg13
g14
sg15
I19
sg16
I01
sa(dp46
g8
I00
sg9
F0.016656602685543476
sg10
F0.49713247792351467
sg11
I30
sg12
I0
sg13
g14
sg15
I19
sg16
I01
sa(dp47
g8
I00
sg9
F0.016642062653772882
sg10
F0.51373605226217478
sg11
I31
sg12
I0
sg13
g14
sg15
I19
sg16
I01
sa(dp48
g8
I00
sg9
F0.016686538041540189
sg10
F0.53042087971243745
sg11
I32
sg12
I0
sg13
g14
sg15
I19
sg16
I01
sa(dp49
g8
I00
sg9
F0.016659168572914496
sg10
F0.54708460986239515
sg11
I33
sg12
I0
sg13
g14
sg15
I19
sg16
I01
sa(dp50
g8
I00
sg9
F0.016641492456983542
sg10
F0.56372296623521834
sg11
I34
sg12
I0
sg13
g14
sg15
I19
sg16
I01
sa(dp51
g8
I00
sg9
F0.016685967844750849
sg10
F0.58041092976964137
sg11
I35
sg12
I0
sg13
g14
sg15
I19
sg16
I01
sa(dp52
g8
I00
sg9
F0.016635220286843833
sg10
F0.59704529476130119
sg11
I36
sg12
I0
sg13
g14
sg15
I19
sg16
I01
sa(dp53
g8
I00
sg9
F0.016750970333305304
sg10
F0.61379655019300117
sg11
I37
sg12
I0
sg13
g14
sg15
I19
sg16
I01
sa(dp54
g8
I00
sg9
F0.016654036797262961
sg10
F0.63045229758154164
sg11
I38
sg12
I0
sg13
g14
sg15
I19
sg16
I01
sa(dp55
g8
I00
sg9
F0.016598442563008575
sg10
F0.64705016994776088
sg11
I39
sg12
I0
sg13
g14
sg15
I19
sg16
I01
sa(dp56
g8
I00
sg9
F0.016655747388540476
sg10
F0.66372587424120866
sg11
I40
sg12
I0
sg13
g14
sg15
I19
sg16
I01
sa(dp57
g8
I00
sg9
F0.016812551638395234
sg10
F0.68050335874704615
sg11
I41
sg12
I0
sg13
g14
sg15
I19
sg16
I01
sa(dp58
g8
I00
sg9
F0.016517759650014341
sg10
F0.69702396938282618
sg11
I42
sg12
I0
sg13
g14
sg15
I19
sg16
I01
sa(dp59
g8
I00
sg9
F0.016610701803983829
sg10
F0.71362725862309162
sg11
I43
sg12
I0
sg13
g14
sg15
I19
sg16
I01
sa(dp60
g8
I00
sg9
F0.016693095310074568
sg10
F0.73032491551111889
sg11
I44
sg12
I0
sg13
g14
sg15
I19
sg16
I01
sa(dp61
g8
I00
sg9
F0.016655177191751136
sg10
F0.74697866720998718
sg11
I45
sg12
I0
sg13
g14
sg15
I19
sg16
I01
sa(dp62
g8
I00
sg9
F0.016560239346290473
sg10
F0.76353919165467232
sg11
I46
sg12
I0
sg13
g14
sg15
I19
sg16
I01
sa(dp63
g8
I00
sg9
F0.016713052214981872
sg10
F0.78019921552277083
sg11
I47
sg12
I0
sg13
g14
sg15
I19
sg16
I01
sa(dp64
g8
I00
sg9
F0.016730158132304496
sg10
F0.79704312801095512
sg11
I48
sg12
I0
sg13
g14
sg15
I19
sg16
I01
sa(dp65
g8
I00
sg9
F0.016661734460285516
sg10
F0.81370457737284596
sg11
I49
sg12
I0
sg13
g14
sg15
I19
sg16
I01
sa(dp66
g8
I00
sg9
F0.016630373610496463
sg10
F0.8303797114695044
sg11
I50
sg12
I0
sg13
g14
sg15
I19
sg16
I01
sa(dp67
g8
I00
sg9
F0.016687108238329529
sg10
F0.84702405491225363
sg11
I51
sg12
I0
sg13
g14
sg15
I19
sg16
I01
sa(dp68
g8
I00
sg9
F0.01666715133433172
sg10
F0.86369149134588952
sg11
I52
sg12
I0
sg13
g14
sg15
I19
sg16
I01
sa(dp69
g8
I00
sg9
F0.016620680256892228
sg10
F0.88030818022161839
sg11
I53
sg12
I0
sg13
g14
sg15
I19
sg16
I01
sa(dp70
g8
I00
sg9
F0.016638071273519017
sg10
F0.89694710679123091
sg11
I54
sg12
I0
sg13
g14
sg15
I19
sg16
I01
sa(dp71
g8
I00
sg9
F0.016663730150867195
sg10
F0.91361653891453898
sg11
I55
sg12
I0
sg13
g14
sg15
I19
sg16
I01
sa(dp72
g8
I00
sg9
F0.016709631031517347
sg10
F0.93031818718372961
sg11
I56
sg12
I0
sg13
g14
sg15
I19
sg16
I01
sa(dp73
g8
I00
sg9
F0.016671142714585585
sg10
F0.94699246598338505
sg11
I57
sg12
I0
sg13
g14
sg15
I19
sg16
I01
sa(dp74
g8
I00
sg9
F0.016655462291055301
sg10
F0.96364821337283502
sg11
I58
sg12
I0
sg13
g14
sg15
I19
sg16
I01
sa(dp75
g8
I00
sg9
F0.016670857616190915
sg10
F0.98031850079223659
sg11
I59
sg12
I0
sg13
g14
sg15
I19
sg16
I01
sa(dp76
g8
I00
sg9
F0.016626097130938433
sg10
F0.99699277959189203
sg11
I60
sg12
I0
sg13
g14
sg15
I19
sg16
I01
sa(dp77
g8
I00
sg9
F0.01660385943705478
sg10
F1.0134928631259754
sg11
I61
sg12
I0
sg13
g14
sg15
I19
sg16
I00
sa(dp78
g8
I00
sg9
F0.016766935857049248
sg10
F1.0302760496051633
sg11
I62
sg12
I0
sg13
g14
sg15
I19
sg16
I00
sa(dp79
g8
I00
sg9
F0.016771497435001947
sg10
F1.0471590206070687
sg11
I63
sg12
I0
sg13
g14
sg15
I19
sg16
I00
sa(dp80
g8
I00
sg9
F0.016666296038238215
sg10
F1.0638307335193531
sg11
I64
sg12
I0
sg13
g14
sg15
I19
sg16
I00
sa(dp81
g8
I00
sg9
F0.016689103928911209
sg10
F1.0805169864624986
sg11
I65
sg12
I0
sg13
g14
sg15
I19
sg16
I00
sa(dp82
g8
I00
sg9
F0.016636930879030842
sg10
F1.0971544875383188
sg11
I66
sg12
I0
sg13
g14
sg15
I19
sg16
I00
sa(dp83
g8
I00
sg9
F0.016654036797262961
sg10
F1.1138079541378829
sg11
I67
sg12
I0
sg13
g14
sg15
I19
sg16
I00
sa(dp84
g8
I00
sg9
F0.01666743643272639
sg10
F1.1304910709959586
sg11
I68
sg12
I0
sg13
g14
sg15
I19
sg16
I00
sa(dp85
g8
I00
sg9
F0.016661164263496175
sg10
F1.1471359846373161
sg11
I69
sg12
I0
sg13
g14
sg15
I19
sg16
I00
sa(dp86
g8
I00
sg9
F0.016658883473610331
sg10
F1.1638607258955744
sg11
I70
sg12
I0
sg13
g14
sg15
I19
sg16
I00
sa(dp87
g8
I00
sg9
F0.016656602684633981
sg10
F1.1804546068806303
sg11
I71
sg12
I0
sg13
g14
sg15
I19
sg16
I00
sa(dp88
g8
I00
sg9
F0.016658028178426321
sg10
F1.1971103542691708
sg11
I72
sg12
I0
sg13
g14
sg15
I19
sg16
I00
sa(dp89
g8
I00
sg9
F0.01667399370126077
sg10
F1.2137854883658292
sg11
I73
sg12
I0
sg13
g14
sg15
I19
sg16
I00
sa(dp90
g8
I00
sg9
F0.016652041106681281
sg10
F1.230439240063788
sg11
I74
sg12
I0
sg13
g14
sg15
I19
sg16
I00
sa(dp91
g8
I00
sg9
F0.016654321895657631
sg10
F1.2470909960720746
sg11
I75
sg12
I0
sg13
g14
sg15
I19
sg16
I00
sa(dp92
g8
I00
sg9
F0.01667313840607676
sg10
F1.2637638493797567
sg11
I76
sg12
I0
sg13
g14
sg15
I19
sg16
I00
sa(dp93
g8
I00
sg9
F0.016613267692264344
sg10
F1.2803862402279265
sg11
I77
sg12
I0
sg13
g14
sg15
I19
sg16
I00
sa(dp94
g8
I00
sg9
F0.016656032487844641
sg10
F1.2970414174196776
sg11
I78
sg12
I0
sg13
g14
sg15
I19
sg16
I00
sa(dp95
g8
I00
sg9
F0.016624671637146093
sg10
F1.3136777781010096
sg11
I79
sg12
I0
sg13
g14
sg15
I19
sg16
I00
sa(dp96
g8
I00
sg9
F0.016707920439330337
sg10
F1.3304370162950363
sg11
I80
sg12
I0
sg13
g14
sg15
I19
sg16
I00
sa(dp97
g8
I00
sg9
F0.016701078072401287
sg10
F1.3470691004968103
sg11
I81
sg12
I0
sg13
g14
sg15
I19
sg16
I00
sa(dp98
g8
I00
sg9
F0.016653466599564126
sg10
F1.3637214267027957
sg11
I82
sg12
I0
sg13
g14
sg15
I19
sg16
I00
sa(dp99
g8
I00
sg9
F0.016704499255865812
sg10
F1.3804356193113563
sg11
I83
sg12
I0
sg13
g14
sg15
I19
sg16
I00
sa(dp100
g8
I00
sg9
F0.016625812031634268
sg10
F1.3970494572013195
sg11
I84
sg12
I0
sg13
g14
sg15
I19
sg16
I00
sa(dp101
g8
I00
sg9
F0.016660594065797341
sg10
F1.4137097661678126
sg11
I85
sg12
I0
sg13
g14
sg15
I19
sg16
I00
sa(dp102
g8
I00
sg9
F0.016685112548657344
sg10
F1.4303908873353066
sg11
I86
sg12
I0
sg13
g14
sg15
I19
sg16
I00
sa(dp103
g8
I00
sg9
F0.016632084201773978
sg10
F1.4470283884120363
sg11
I87
sg12
I0
sg13
g14
sg15
I19
sg16
I00
sa(dp104
g8
I00
sg9
F0.0166691470249134
sg10
F1.4637035225077852
sg11
I88
sg12
I0
sg13
g14
sg15
I19
sg16
I00
sa(dp105
g8
I00
sg9
F0.016606995522124635
sg10
F1.4803145094110732
sg11
I89
sg12
I0
sg13
g14
sg15
I19
sg16
I00
sa(dp106
g8
I00
sg9
F0.016644628542053397
sg10
F1.4970195788637284
sg11
I90
sg12
I0
sg13
g14
sg15
I19
sg16
I00
sa(dp107
g8
I00
sg9
F0.016665725841448875
sg10
F1.5136106088630186
sg11
I91
sg12
I0
sg13
g14
sg15
I19
sg16
I00
sa(dp108
g8
I00
sg9
F0.016699082381819608
sg10
F1.5303222355842081
sg11
I92
sg12
I0
sg13
g14
sg15
I19
sg16
I00
sa(dp109
g8
I00
sg9
F0.016627522623821278
sg10
F1.5469386393615423
sg11
I93
sg12
I0
sg13
g14
sg15
I19
sg16
I00
sa(dp110
g8
I00
sg9
F0.016653181501169456
sg10
F1.5635943867500828
sg11
I94
sg12
I0
sg13
g14
sg15
I19
sg16
I00
sa(dp111
g8
I00
sg9
F0.01666515564375004
sg10
F1.5802578318025553
sg11
I95
sg12
I0
sg13
g14
sg15
I19
sg16
I00
sa(dp112
g8
I00
sg9
F0.016701648269190628
sg10
F1.5969822879624189
sg11
I96
sg12
I0
sg13
g14
sg15
I19
sg16
I00
sa(dp113
g8
I00
sg9
F0.016598157464613905
sg10
F1.6135781646380565
sg11
I97
sg12
I0
sg13
g14
sg15
I19
sg16
I00
sa(dp114
g8
I00
sg9
F0.016735860105654865
sg10
F1.6302963486277804
sg11
I98
sg12
I0
sg13
g14
sg15
I19
sg16
I00
sa(dp115
g8
I00
sg9
F0.016658598375215661
sg10
F1.646952381115625
sg11
I99
sg12
I0
sg13
g14
sg15
I19
sg16
I00
sa(dp116
g8
I00
sg9
F0.016668576827214565
sg10
F1.6636888114180692
sg11
I100
sg12
I0
sg13
g14
sg15
I19
sg16
I00
sa(dp117
g8
I00
sg9
F0.01667142781388975
sg10
F1.6802932410528229
sg11
I101
sg12
I0
sg13
g14
sg15
I19
sg16
I00
sa(dp118
g8
I00
sg9
F0.016649475219310261
sg10
F1.6969412907783408
sg11
I102
sg12
I0
sg13
g14
sg15
I19
sg16
I00
sa(dp119
g8
I00
sg9
F0.016653466599564126
sg10
F1.7135970381677907
sg11
I103
sg12
I0
sg13
g14
sg15
I19
sg16
I00
sa(dp120
g8
I00
sg9
F0.016641777556287707
sg10
F1.7302368200325873
sg11
I104
sg12
I0
sg13
g14
sg15
I19
sg16
I00
sa(dp121
g8
I00
sg9
F0.016693380408469238
sg10
F1.7469330514277317
sg11
I105
sg12
I0
sg13
g14
sg15
I19
sg16
I00
sa(dp122
g8
I00
sg9
F0.016658883474519826
sg10
F1.7635876584226935
sg11
I106
sg12
I0
sg13
g14
sg15
I19
sg16
I00
sa(dp123
g8
I00
sg9
F0.016682546660376829
sg10
F1.7802787580421864
sg11
I107
sg12
I0
sg13
g14
sg15
I19
sg16
I00
sa(dp124
g8
I00
sg9
F0.016644058344354562
sg10
F1.7969193952030764
sg11
I108
sg12
I0
sg13
g14
sg15
I19
sg16
I00
sa(dp125
g8
I00
sg9
F0.016650615613798436
sg10
F1.8135694406200855
sg11
I109
sg12
I0
sg13
g14
sg15
I19
sg16
I00
sa(dp126
g8
I00
sg9
F0.016649190120006097
sg10
F1.8303004540484835
sg11
I110
sg12
I0
sg13
g14
sg15
I19
sg16
I00
sa(dp127
g8
I00
sg9
F0.016675704293447779
sg10
F1.846903743288749
sg11
I111
sg12
I0
sg13
g14
sg15
I19
sg16
I00
sa(dp128
g8
I00
sg9
F0.01666487054535537
sg10
F1.8635634820584528
sg11
I112
sg12
I0
sg13
g14
sg15
I19
sg16
I00
sa(dp129
g8
I00
sg9
F0.016692810211679898
sg10
F1.880254296579551
sg11
I113
sg12
I0
sg13
g14
sg15
I19
sg16
I00
sa(dp130
g8
I00
sg9
F0.016623246144263248
sg10
F1.8968929380498594
sg11
I114
sg12
I0
sg13
g14
sg15
I19
sg16
I00
sa(dp131
g8
I00
sg9
F0.016645483838146902
sg10
F1.9135831823741682
sg11
I115
sg12
I0
sg13
g14
sg15
I19
sg16
I00
sa(dp132
g8
I00
sg9
F0.01659673197173106
sg10
F1.9301268859990159
sg11
I116
sg12
I0
sg13
g14
sg15
I19
sg16
I00
sa(dp133
g8
I00
sg9
F0.016740991880396905
sg10
F1.9468636014007643
sg11
I117
sg12
I0
sg13
g14
sg15
I19
sg16
I00
sa(dp134
g8
I00
sg9
F0.01666401525017136
sg10
F1.9635256209594445
sg11
I118
sg12
I0
sg13
g14
sg15
I19
sg16
I00
sa(dp135
g8
I00
sg9
F0.01666943212330807
sg10
F1.9801979040694278
sg11
I119
sg12
I0
sg13
g14
sg15
I19
sg16
I00
sa(dp136
g8
I00
sg9
F0.016650045416099601
sg10
F1.9969072500016409
sg11
I120
sg12
I0
sg13
g14
sg15
I19
sg16
I00
sa(dp137
g8
I00
sg9
F0.016662304657074856
sg10
F2.0135182369049289
sg11
I121
sg12
I0
sg13
g14
sg15
I14
sg16
I01
sa(dp138
g8
I00
sg9
F0.016631514004984638
sg10
F2.0301965070857477
sg11
I122
sg12
I0
sg13
g14
sg15
I14
sg16
I01
sa(dp139
g8
I00
sg9
F0.016681691365192819
sg10
F2.046879053747034
sg11
I123
sg12
I0
sg13
g14
sg15
I14
sg16
I01
sa(dp140
g8
I00
sg9
F0.016639211668007192
sg10
F2.0635179803157371
sg11
I124
sg12
I0
sg13
g14
sg15
I14
sg16
I01
sa(dp141
g8
I00
sg9
F0.016688533732121869
sg10
F2.0802290368401373
sg11
I125
sg12
I0
sg13
g14
sg15
I14
sg16
I01
sa(dp142
g8
I00
sg9
F0.016411702956247609
sg10
F2.0964514343031624
sg11
I126
sg12
I0
sg13
g14
sg15
I14
sg16
I01
sa(dp143
g8
I00
sg9
F0.01666715133433172
sg10
F2.1131151644540296
sg11
I127
sg12
I0
sg13
g14
sg15
I14
sg16
I01
sa(dp144
g8
I00
sg9
F0.016655177191751136
sg10
F2.1297726224347571
sg11
I128
sg12
I0
sg13
g14
sg15
I14
sg16
I01
sa(dp145
g8
I00
sg9
F0.016670287419401575
sg10
F2.1464443353470415
sg11
I129
sg12
I0
sg13
g14
sg15
I14
sg16
I01
sa(dp146
g8
I00
sg9
F0.016649760317704931
sg10
F2.1631334392759527
sg11
I130
sg12
I0
sg13
g14
sg15
I14
sg16
I01
sa(dp147
g8
I00
sg9
F0.016699652578608948
sg10
F2.179809998865494
sg11
I131
sg12
I0
sg13
g14
sg15
I14
sg16
I01
sa(dp148
g8
I00
sg9
F0.016681976463587489
sg10
F2.1964745843124547
sg11
I132
sg12
I0
sg13
g14
sg15
I14
sg16
I01
sa(dp149
g8
I00
sg9
F0.016685112548657344
sg10
F2.2131574160712262
sg11
I133
sg12
I0
sg13
g14
sg15
I14
sg16
I01
sa(dp150
g8
I00
sg9
F0.016655177191751136
sg10
F2.2298279885899319
sg11
I134
sg12
I0
sg13
g14
sg15
I14
sg16
I01
sa(dp151
g8
I00
sg9
F0.016638926568703027
sg10
F2.2464546559176597
sg11
I135
sg12
I0
sg13
g14
sg15
I14
sg16
I01
sa(dp152
g8
I00
sg9
F0.016661734460285516
sg10
F2.2631181009701322
sg11
I136
sg12
I0
sg13
g14
sg15
I14
sg16
I01
sa(dp153
g8
I00
sg9
F0.016660308967402671
sg10
F2.2797752738515555
sg11
I137
sg12
I0
sg13
g14
sg15
I14
sg16
I01
sa(dp154
g8
I00
sg9
F0.016662019558680186
sg10
F2.2964390040024227
sg11
I138
sg12
I0
sg13
g14
sg15
I14
sg16
I01
sa(dp155
g8
I00
sg9
F0.016664015249261865
sg10
F2.3131038745477781
sg11
I139
sg12
I0
sg13
g14
sg15
I14
sg16
I01
sa(dp156
g8
I00
sg9
F0.016649760317704931
sg10
F2.3297909827870171
sg11
I140
sg12
I0
sg13
g14
sg15
I14
sg16
I01
sa(dp157
g8
I00
sg9
F0.0166737086028661
sg10
F2.3464247775809781
sg11
I141
sg12
I0
sg13
g14
sg15
I14
sg16
I01
sa(dp158
g8
I00
sg9
F0.016654892093356466
sg10
F2.3630822355617056
sg11
I142
sg12
I0
sg13
g14
sg15
I14
sg16
I01
sa(dp159
g8
I00
sg9
F0.016627807723125443
sg10
F2.3797100432839216
sg11
I143
sg12
I0
sg13
g14
sg15
I14
sg16
I01
sa(dp160
g8
I00
sg9
F0.016633224596262153
sg10
F2.3965137568648061
sg11
I144
sg12
I0
sg13
g14
sg15
I14
sg16
I01
sa(dp161
g8
I00
sg9
F0.016666010939843545
sg10
F2.4132099882599505
sg11
I145
sg12
I0
sg13
g14
sg15
I14
sg16
I01
sa(dp162
g8
I00
sg9
F0.016674563898959605
sg10
F2.4298497701256565
sg11
I146
sg12
I0
sg13
g14
sg15
I14
sg16
I01
sa(dp163
g8
I00
sg9
F0.016681121167493984
sg10
F2.446530035997057
sg11
I147
sg12
I0
sg13
g14
sg15
I14
sg16
I01
sa(dp164
g8
I00
sg9
F0.016628663018309453
sg10
F2.4631626903965298
sg11
I148
sg12
I0
sg13
g14
sg15
I14
sg16
I01
sa(dp165
g8
I00
sg9
F0.016703358861377637
sg10
F2.4798888571485804
sg11
I149
sg12
I0
sg13
g14
sg15
I14
sg16
I01
sa(dp166
g8
I00
sg9
F0.016620680256892228
sg10
F2.4965309198023533
sg11
I150
sg12
I0
sg13
g14
sg15
I14
sg16
I01
sa(dp167
g8
I00
sg9
F0.016722460469281941
sg10
F2.5130669257650879
sg11
I151
sg12
I0
sg13
g14
sg15
I14
sg16
I01
sa(dp168
g8
I00
sg9
F0.016602433944171935
sg10
F2.529639994549143
sg11
I152
sg12
I0
sg13
g14
sg15
I14
sg16
I01
sa(dp169
g8
I00
sg9
F0.016719324384212086
sg10
F2.5463590338349604
sg11
I153
sg12
I0
sg13
g14
sg15
I14
sg16
I01
sa(dp170
g8
I00
sg9
F0.016652041106681281
sg10
F2.5630122153361299
sg11
I154
sg12
I0
sg13
g14
sg15
I14
sg16
I01
sa(dp171
g8
I00
sg9
F0.016636930879030842
sg10
F2.5796474356238832
sg11
I155
sg12
I0
sg13
g14
sg15
I14
sg16
I01
sa(dp172
g8
I00
sg9
F0.016632369301078143
sg10
F2.5962818006146335
sg11
I156
sg12
I0
sg13
g14
sg15
I14
sg16
I01
sa(dp173
g8
I00
sg9
F0.016662019558680186
sg10
F2.6129441052726179
sg11
I157
sg12
I0
sg13
g14
sg15
I14
sg16
I01
sa(dp174
g8
I00
sg9
F0.016614693186056684
sg10
F2.6295582282609757
sg11
I158
sg12
I0
sg13
g14
sg15
I14
sg16
I01
sa(dp175
g8
I00
sg9
F0.016758667996327858
sg10
F2.6463163260596048
sg11
I159
sg12
I0
sg13
g14
sg15
I14
sg16
I01
sa(dp176
g8
I00
sg9
F0.016663445051563031
sg10
F2.6630239614005404
sg11
I160
sg12
I0
sg13
g14
sg15
I14
sg16
I01
sa(dp177
g8
I00
sg9
F0.016646054035845737
sg10
F2.6796238294564318
sg11
I161
sg12
I0
sg13
g14
sg15
I14
sg16
I01
sa(dp178
g8
I00
sg9
F0.016616973974123539
sg10
F2.6962445097133241
sg11
I162
sg12
I0
sg13
g14
sg15
I14
sg16
I01
sa(dp179
g8
I00
sg9
F0.016658883473610331
sg10
F2.7129028229901451
sg11
I163
sg12
I0
sg13
g14
sg15
I14
sg16
I01
sa(dp180
g8
I00
sg9
F0.016692810211679898
sg10
F2.7295913567222669
sg11
I164
sg12
I0
sg13
g14
sg15
I14
sg16
I01
sa(dp181
g8
I00
sg9
F0.016632369301078143
sg10
F2.7462282876012978
sg11
I165
sg12
I0
sg13
g14
sg15
I14
sg16
I01
sa(dp182
g8
I00
sg9
F0.01666258975637902
sg10
F2.7628891667654898
sg11
I166
sg12
I0
sg13
g14
sg15
I14
sg16
I01
sa(dp183
g8
I00
sg9
F0.016657172881423321
sg10
F2.7795471949430066
sg11
I167
sg12
I0
sg13
g14
sg15
I14
sg16
I01
sa(dp184
g8
I00
sg9
F0.016663445052472525
sg10
F2.796211210193178
sg11
I168
sg12
I0
sg13
g14
sg15
I14
sg16
I01
sa(dp185
g8
I00
sg9
F0.016631799103379308
sg10
F2.8128421540004638
sg11
I169
sg12
I0
sg13
g14
sg15
I14
sg16
I01
sa(dp186
g8
I00
sg9
F0.016712767116587202
sg10
F2.829560052891793
sg11
I170
sg12
I0
sg13
g14
sg15
I14
sg16
I01
sa(dp187
g8
I00
sg9
F0.016650900711283612
sg10
F2.8462066771244281
sg11
I171
sg12
I0
sg13
g14
sg15
I14
sg16
I01
sa(dp188
g8
I00
sg9
F0.016705069453564647
sg10
F2.8629145975637584
sg11
I172
sg12
I0
sg13
g14
sg15
I14
sg16
I01
sa(dp189
g8
I00
sg9
F0.01667342350447143
sg10
F2.8795837445886718
sg11
I173
sg12
I0
sg13
g14
sg15
I14
sg16
I01
sa(dp190
g8
I00
sg9
F0.016647764627123252
sg10
F2.8962337900047714
sg11
I174
sg12
I0
sg13
g14
sg15
I14
sg16
I01
sa(dp191
g8
I00
sg9
F0.016660879164192011
sg10
F2.9128958095634516
sg11
I175
sg12
I0
sg13
g14
sg15
I14
sg16
I01
sa(dp192
g8
I00
sg9
F0.016648619923216756
sg10
F2.9295441443882737
sg11
I176
sg12
I0
sg13
g14
sg15
I14
sg16
I01
sa(dp193
g8
I00
sg9
F0.01667171291228442
sg10
F2.94621471690607
sg11
I177
sg12
I0
sg13
g14
sg15
I14
sg16
I01
sa(dp194
g8
I00
sg9
F0.01666487054535537
sg10
F2.9628795874514253
sg11
I178
sg12
I0
sg13
g14
sg15
I14
sg16
I01
sa(dp195
g8
I00
sg9
F0.016657172881423321
sg10
F2.9795370454321528
sg11
I179
sg12
I0
sg13
g14
sg15
I14
sg16
I01
sa(dp196
g8
I00
sg9
F0.01666258975637902
sg10
F2.9962384086029488
sg11
I180
sg12
I0
sg13
g14
sg15
I14
sg16
I01
sa(dp197
g8
I00
sg9
F0.016660023869008
sg10
F3.0128602292534197
sg11
I181
sg12
I0
sg13
g14
sg15
I14
sg16
I00
sa(dp198
g8
I00
sg9
F0.016660594065797341
sg10
F3.0294874667788463
sg11
I182
sg12
I0
sg13
g14
sg15
I14
sg16
I00
sa(dp199
g8
I00
sg9
F0.01666743643272639
sg10
F3.0461591796920402
sg11
I183
sg12
I0
sg13
g14
sg15
I14
sg16
I00
sa(dp200
g8
I00
sg9
F0.016845052882672462
sg10
F3.0631405097228708
sg11
I184
sg12
I0
sg13
g14
sg15
I14
sg16
I00
sa(dp201
g8
I00
sg9
F0.016547124809221714
sg10
F3.0796825027555315
sg11
I185
sg12
I0
sg13
g14
sg15
I14
sg16
I00
sa(dp202
g8
I00
sg9
F0.016771497435001947
sg10
F3.0964500088102795
sg11
I186
sg12
I0
sg13
g14
sg15
I14
sg16
I00
sa(dp203
g8
I00
sg9
F0.016560524444685143
sg10
F3.1130350517369152
sg11
I187
sg12
I0
sg13
g14
sg15
I14
sg16
I00
sa(dp204
g8
I00
sg9
F0.016761804081397713
sg10
F3.1297709118425701
sg11
I188
sg12
I0
sg13
g14
sg15
I14
sg16
I00
sa(dp205
g8
I00
sg9
F0.016562805233661493
sg10
F3.1463382786541843
sg11
I189
sg12
I0
sg13
g14
sg15
I14
sg16
I00
sa(dp206
g8
I00
sg9
F0.016774633519162307
sg10
F3.1631870378196254
sg11
I190
sg12
I0
sg13
g14
sg15
I14
sg16
I00
sa(dp207
g8
I00
sg9
F0.016573068784964562
sg10
F3.1797053676664291
sg11
I191
sg12
I0
sg13
g14
sg15
I14
sg16
I00
sa(dp208
g8
I00
sg9
F0.016738140894631215
sg10
F3.1964261175444335
sg11
I192
sg12
I0
sg13
g14
sg15
I14
sg16
I00
sa(dp209
g8
I00
sg9
F0.016667721532030555
sg10
F3.2130972602599286
sg11
I193
sg12
I0
sg13
g14
sg15
I14
sg16
I00
sa(dp210
g8
I00
sg9
F0.016619539861494559
sg10
F3.2297196511080983
sg11
I194
sg12
I0
sg13
g14
sg15
I14
sg16
I00
sa(dp211
g8
I00
sg9
F0.016699652579518443
sg10
F3.2464184483906138
sg11
I195
sg12
I0
sg13
g14
sg15
I14
sg16
I00
sa(dp212
g8
I00
sg9
F0.016656887783028651
sg10
F3.2630787573580164
sg11
I196
sg12
I0
sg13
g14
sg15
I14
sg16
I00
sa(dp213
g8
I00
sg9
F0.016664300347656535
sg10
F3.2797339345497676
sg11
I197
sg12
I0
sg13
g14
sg15
I14
sg16
I00
sa(dp214
g8
I00
sg9
F0.016670287419401575
sg10
F3.2964124898298905
sg11
I198
sg12
I0
sg13
g14
sg15
I14
sg16
I00
sa(dp215
g8
I00
sg9
F0.016656887783938146
sg10
F3.3130727987963837
sg11
I199
sg12
I0
sg13
g14
sg15
I14
sg16
I00
sa(dp216
g8
I00
sg9
F0.016631514004984638
sg10
F3.3297758725593667
sg11
I200
sg12
I0
sg13
g14
sg15
I14
sg16
I00
sa(dp217
g8
I00
sg9
F0.016691099619492888
sg10
F3.3463917061390021
sg11
I201
sg12
I0
sg13
g14
sg15
I14
sg16
I00
sa(dp218
g8
I00
sg9
F0.016656887783028651
sg10
F3.363045742936265
sg11
I202
sg12
I0
sg13
g14
sg15
I14
sg16
I00
sa(dp219
g8
I00
sg9
F0.016659168572914496
sg10
F3.3797089028894334
sg11
I203
sg12
I0
sg13
g14
sg15
I14
sg16
I00
sa(dp220
g8
I00
sg9
F0.016659168572914496
sg10
F3.3963549569243696
sg11
I204
sg12
I0
sg13
g14
sg15
I14
sg16
I00
sa(dp221
g8
I00
sg9
F0.016454752850222576
sg10
F3.4128416408229896
sg11
I205
sg12
I0
sg13
g14
sg15
I14
sg16
I00
sa(dp222
g8
I00
sg9
F0.016843912489093782
sg10
F3.4296561881519665
sg11
I206
sg12
I0
sg13
g14
sg15
I14
sg16
I00
sa(dp223
g8
I00
sg9
F0.016691669816282229
sg10
F3.4463472877714594
sg11
I207
sg12
I0
sg13
g14
sg15
I14
sg16
I00
sa(dp224
g8
I00
sg9
F0.016654036797262961
sg10
F3.4630056010482804
sg11
I208
sg12
I0
sg13
g14
sg15
I14
sg16
I00
sa(dp225
g8
I00
sg9
F0.0166645854469607
sg10
F3.4796995516544484
sg11
I209
sg12
I0
sg13
g14
sg15
I14
sg16
I00
sa(dp226
g8
I00
sg9
F0.016660594065797341
sg10
F3.4963989191346627
sg11
I210
sg12
I0
sg13
g14
sg15
I14
sg16
I00
sa(dp227
g8
I00
sg9
F0.016656602684633981
sg10
F3.5129885236401606
sg11
I211
sg12
I0
sg13
g14
sg15
I14
sg16
I00
sa(dp228
g8
I00
sg9
F0.016658028178426321
sg10
F3.5296827593447233
sg11
I212
sg12
I0
sg13
g14
sg15
I14
sg16
I00
sa(dp229
g8
I00
sg9
F0.016661164262586681
sg10
F3.546298307825964
sg11
I213
sg12
I0
sg13
g14
sg15
I14
sg16
I00
sa(dp230
g8
I00
sg9
F0.016668006630425225
sg10
F3.5629703058366431
sg11
I214
sg12
I0
sg13
g14
sg15
I14
sg16
I00
sa(dp231
g8
I00
sg9
F0.016656602684633981
sg10
F3.5796243426339061
sg11
I215
sg12
I0
sg13
g14
sg15
I14
sg16
I00
sa(dp232
g8
I00
sg9
F0.01666515564375004
sg10
F3.5962923492643313
sg11
I216
sg12
I0
sg13
g14
sg15
I14
sg16
I00
sa(dp233
g8
I00
sg9
F0.016642917950775882
sg10
F3.6129315609323385
sg11
I217
sg12
I0
sg13
g14
sg15
I14
sg16
I00
sa(dp234
g8
I00
sg9
F0.016680550969795149
sg10
F3.6296169585793905
sg11
I218
sg12
I0
sg13
g14
sg15
I14
sg16
I00
sa(dp235
g8
I00
sg9
F0.01666258975637902
sg10
F3.646276127152305
sg11
I219
sg12
I0
sg13
g14
sg15
I14
sg16
I00
sa(dp236
g8
I00
sg9
F0.016659738769703836
sg10
F3.6630060001862148
sg11
I220
sg12
I0
sg13
g14
sg15
I14
sg16
I00
sa(dp237
g8
I00
sg9
F0.016649475219310261
sg10
F3.679620693371362
sg11
I221
sg12
I0
sg13
g14
sg15
I14
sg16
I00
sa(dp238
g8
I00
sg9
F0.016666866235027555
sg10
F3.6962527775740455
sg11
I222
sg12
I0
sg13
g14
sg15
I14
sg16
I00
sa(dp239
g8
I00
sg9
F0.016656317586239311
sg10
F3.7129338987415395
sg11
I223
sg12
I0
sg13
g14
sg15
I14
sg16
I00
sa(dp240
g8
I00
sg9
F0.016620680256892228
sg10
F3.7295591405763844
sg11
I224
sg12
I0
sg13
g14
sg15
I14
sg16
I00
sa(dp241
g8
I00
sg9
F0.016646054035845737
sg10
F3.7461766847482068
sg11
I225
sg12
I0
sg13
g14
sg15
I14
sg16
I00
sa(dp242
g8
I00
sg9
F0.016622390848169744
sg10
F3.7628101944437731
sg11
I226
sg12
I0
sg13
g14
sg15
I14
sg16
I00
sa(dp243
g8
I00
sg9
F0.016760093489210703
sg10
F3.7795620200722624
sg11
I227
sg12
I0
sg13
g14
sg15
I14
sg16
I00
sa(dp244
g8
I00
sg9
F0.016656602685543476
sg10
F3.7962217588419662
sg11
I228
sg12
I0
sg13
g14
sg15
I14
sg16
I00
sa(dp245
g8
I00
sg9
F0.016662589755469526
sg10
F3.8128869144857163
sg11
I229
sg12
I0
sg13
g14
sg15
I14
sg16
I00
sa(dp246
g8
I00
sg9
F0.016674278800564934
sg10
F3.829636174227744
sg11
I230
sg12
I0
sg13
g14
sg15
I14
sg16
I00
sa(dp247
g8
I00
sg9
F0.016645483838146902
sg10
F3.8461966986724292
sg11
I231
sg12
I0
sg13
g14
sg15
I14
sg16
I00
sa(dp248
g8
I00
sg9
F0.01667199801067909
sg10
F3.8628761092477362
sg11
I232
sg12
I0
sg13
g14
sg15
I14
sg16
I00
sa(dp249
g8
I00
sg9
F0.016646909331939241
sg10
F3.8795495327522076
sg11
I233
sg12
I0
sg13
g14
sg15
I14
sg16
I00
sa(dp250
g8
I00
sg9
F0.016664585446051206
sg10
F3.8961947314919598
sg11
I234
sg12
I0
sg13
g14
sg15
I14
sg16
I00
sa(dp251
g8
I00
sg9
F0.0166691470249134
sg10
F3.9128553255577572
sg11
I235
sg12
I0
sg13
g14
sg15
I14
sg16
I00
sa(dp252
g8
I00
sg9
F0.016660308967402671
sg10
F3.9295367318236458
sg11
I236
sg12
I0
sg13
g14
sg15
I14
sg16
I00
sa(dp253
g8
I00
sg9
F0.016654036797262961
sg10
F3.9461719521104897
sg11
I237
sg12
I0
sg13
g14
sg15
I14
sg16
I00
sa(dp254
g8
I00
sg9
F0.01667000232009741
sg10
F3.9628359673597515
sg11
I238
sg12
I0
sg13
g14
sg15
I14
sg16
I00
sa(dp255
g8
I00
sg9
F0.016658883474519826
sg10
F3.9794948508342713
sg11
I239
sg12
I0
sg13
g14
sg15
I14
sg16
I00
sa(dp256
g8
I00
sg9
F0.01660357433866011
sg10
F3.9961873759466471
sg11
I240
sg12
I0
sg13
g14
sg15
I14
sg16
I00
sa(dp257
g8
I00
sg9
F0.016620110059193394
sg10
F4.0127541725614719
sg11
I241
sg12
I0
sg13
g14
sg15
I18
sg16
I01
sa(dp258
g8
I00
sg9
F0.016754961714468664
sg10
F4.0295433461114953
sg11
I242
sg12
I0
sg13
g14
sg15
I18
sg16
I01
sa(dp259
g8
I00
sg9
F0.016658313275911496
sg10
F4.0461956723174808
sg11
I243
sg12
I0
sg13
g14
sg15
I18
sg16
I01
sa(dp260
g8
I00
sg9
F0.016553967176150763
sg10
F4.062760473241724
sg11
I244
sg12
I0
sg13
g14
sg15
I18
sg16
I01
sa(dp261
g8
I00
sg9
F0.016562520135266823
sg10
F4.0791425259403695
sg11
I245
sg12
I0
sg13
g14
sg15
I18
sg16
I01
sa(dp262
g8
I00
sg9
F0.016613267692264344
sg10
F4.0957580744216102
sg11
I246
sg12
I0
sg13
g14
sg15
I18
sg16
I01
sa(dp263
g8
I00
sg9
F0.016666296038238215
sg10
F4.1124238002621496
sg11
I247
sg12
I0
sg13
g14
sg15
I18
sg16
I01
sa(dp264
g8
I00
sg9
F0.016682831759680994
sg10
F4.1291040661344596
sg11
I248
sg12
I0
sg13
g14
sg15
I18
sg16
I01
sa(dp265
g8
I00
sg9
F0.016637215977425512
sg10
F4.1457464138875366
sg11
I249
sg12
I0
sg13
g14
sg15
I18
sg16
I01
sa(dp266
g8
I00
sg9
F0.016661449361890845
sg10
F4.1624469217622391
sg11
I250
sg12
I0
sg13
g14
sg15
I18
sg16
I01
sa(dp267
g8
I00
sg9
F0.01667655958863179
sg10
F4.1790807165562001
sg11
I251
sg12
I0
sg13
g14
sg15
I18
sg16
I01
sa(dp268
g8
I00
sg9
F0.016645198739752232
sg10
F4.1957290513801127
sg11
I252
sg12
I0
sg13
g14
sg15
I18
sg16
I01
sa(dp269
g8
I00
sg9
F0.016661449361890845
sg10
F4.212396487812839
sg11
I253
sg12
I0
sg13
g14
sg15
I18
sg16
I01
sa(dp270
g8
I00
sg9
F0.016670857616190915
sg10
F4.2290627838519868
sg11
I254
sg12
I0
sg13
g14
sg15
I18
sg16
I01
sa(dp271
g8
I00
sg9
F0.016649190120915591
sg10
F4.2457119739719928
sg11
I255
sg12
I0
sg13
g14
sg15
I18
sg16
I01
sa(dp272
g8
I00
sg9
F0.016658883473610331
sg10
F4.2623668660653493
sg11
I256
sg12
I0
sg13
g14
sg15
I18
sg16
I01
sa(dp273
g8
I00
sg9
F0.016661449361890845
sg10
F4.2791135599190966
sg11
I257
sg12
I0
sg13
g14
sg15
I18
sg16
I01
sa(dp274
g8
I00
sg9
F0.016727022047234641
sg10
F4.2957596139540328
sg11
I258
sg12
I0
sg13
g14
sg15
I18
sg16
I01
sa(dp275
g8
I00
sg9
F0.016550545992686239
sg10
F4.3123055983678569
sg11
I259
sg12
I0
sg13
g14
sg15
I18
sg16
I01
sa(dp276
g8
I00
sg9
F0.016700507874702453
sg10
F4.3289881450291432
sg11
I260
sg12
I0
sg13
g14
sg15
I18
sg16
I01
sa(dp277
g8
I00
sg9
F0.016719039285817416
sg10
F4.3457277114166573
sg11
I261
sg12
I0
sg13
g14
sg15
I18
sg16
I01
sa(dp278
g8
I00
sg9
F0.016569077403801202
sg10
F4.3622922272425058
sg11
I262
sg12
I0
sg13
g14
sg15
I18
sg16
I01
sa(dp279
g8
I00
sg9
F0.016753821319980489
sg10
F4.3790506101395295
sg11
I263
sg12
I0
sg13
g14
sg15
I18
sg16
I01
sa(dp280
g8
I00
sg9
F0.016658883473610331
sg10
F4.3957074979234676
sg11
I264
sg12
I0
sg13
g14
sg15
I18
sg16
I01
sa(dp281
g8
I00
sg9
F0.016640066964100697
sg10
F4.4123518413671263
sg11
I265
sg12
I0
sg13
g14
sg15
I18
sg16
I01
sa(dp282
g8
I00
sg9
F0.016672853306772595
sg10
F4.4290244095755043
sg11
I266
sg12
I0
sg13
g14
sg15
I18
sg16
I01
sa(dp283
g8
I00
sg9
F0.016661164263496175
sg10
F4.4456841483452081
sg11
I267
sg12
I0
sg13
g14
sg15
I18
sg16
I01
sa(dp284
g8
I00
sg9
F0.016569647600590542
sg10
F4.462255221439591
sg11
I268
sg12
I0
sg13
g14
sg15
I18
sg16
I01
sa(dp285
g8
I00
sg9
F0.01667114271549508
sg10
F4.4789232280700162
sg11
I269
sg12
I0
sg13
g14
sg15
I18
sg16
I01
sa(dp286
g8
I00
sg9
F0.016675704293447779
sg10
F4.4956414120597401
sg11
I270
sg12
I0
sg13
g14
sg15
I18
sg16
I01
sa(dp287
g8
I00
sg9
F0.016679410575306974
sg10
F4.5122817641222355
sg11
I271
sg12
I0
sg13
g14
sg15
I18
sg16
I01
sa(dp288
g8
I00
sg9
F0.01666658113754238
sg10
F4.5289463495691962
sg11
I272
sg12
I0
sg13
g14
sg15
I18
sg16
I01
sa(dp289
g8
I00
sg9
F0.016659453670399671
sg10
F4.545604377746713
sg11
I273
sg12
I0
sg13
g14
sg15
I18
sg16
I01
sa(dp290
g8
I00
sg9
F0.016681121167493984
sg10
F4.5622823628291371
sg11
I274
sg12
I0
sg13
g14
sg15
I18
sg16
I01
sa(dp291
g8
I00
sg9
F0.016641207358588872
sg10
F4.5789269913711905
sg11
I275
sg12
I0
sg13
g14
sg15
I18
sg16
I01
sa(dp292
g8
I00
sg9
F0.01667342350447143
sg10
F4.5956012701717555
sg11
I276
sg12
I0
sg13
g14
sg15
I18
sg16
I01
sa(dp293
g8
I00
sg9
F0.016614408086752519
sg10
F4.6122108315821606
sg11
I277
sg12
I0
sg13
g14
sg15
I18
sg16
I01
sa(dp294
g8
I00
sg9
F0.01667342350447143
sg10
F4.6288306565429593
sg11
I278
sg12
I0
sg13
g14
sg15
I18
sg16
I01
sa(dp295
g8
I00
sg9
F0.016742417374189245
sg10
F4.6456292383481923
sg11
I279
sg12
I0
sg13
g14
sg15
I18
sg16
I01
sa(dp296
g8
I00
sg9
F0.016653466599564126
sg10
F4.6623246144472432
sg11
I280
sg12
I0
sg13
g14
sg15
I18
sg16
I01
sa(dp297
g8
I00
sg9
F0.01666287485477369
sg10
F4.6789586943395989
sg11
I281
sg12
I0
sg13
g14
sg15
I18
sg16
I01
sa(dp298
g8
I00
sg9
F0.016660023869008
sg10
F4.6956084546573038
sg11
I282
sg12
I0
sg13
g14
sg15
I18
sg16
I01
sa(dp299
g8
I00
sg9
F0.016655747388540476
sg10
F4.7122624914545668
sg11
I283
sg12
I0
sg13
g14
sg15
I18
sg16
I01
sa(dp300
g8
I00
sg9
F0.01666515564375004
sg10
F4.728951595383478
sg11
I284
sg12
I0
sg13
g14
sg15
I18
sg16
I01
sa(dp301
g8
I00
sg9
F0.016660308967402671
sg10
F4.7455882411641142
sg11
I285
sg12
I0
sg13
g14
sg15
I18
sg16
I01
sa(dp302
g8
I00
sg9
F0.016661734460285516
sg10
F4.7622519713149813
sg11
I286
sg12
I0
sg13
g14
sg15
I18
sg16
I01
sa(dp303
g8
I00
sg9
F0.016659453671309166
sg10
F4.7789097143941035
sg11
I287
sg12
I0
sg13
g14
sg15
I18
sg16
I01
sa(dp304
g8
I00
sg9
F0.016606710423729965
sg10
F4.7955181354100205
sg11
I288
sg12
I0
sg13
g14
sg15
I18
sg16
I01
sa(dp305
g8
I00
sg9
F0.016652326205075951
sg10
F4.8121693212206083
sg11
I289
sg12
I0
sg13
g14
sg15
I18
sg16
I01
sa(dp306
g8
I00
sg9
F0.01673243892219034
sg10
F4.8289465206280511
sg11
I290
sg12
I0
sg13
g14
sg15
I18
sg16
I01
sa(dp307
g8
I00
sg9
F0.016654606994052301
sg10
F4.8455569373336402
sg11
I291
sg12
I0
sg13
g14
sg15
I18
sg16
I01
sa(dp308
g8
I00
sg9
F0.016663445052472525
sg10
F4.8622218078789956
sg11
I292
sg12
I0
sg13
g14
sg15
I18
sg16
I01
sa(dp309
g8
I00
sg9
F0.016661449360981351
sg10
F4.8789026439480949
sg11
I293
sg12
I0
sg13
g14
sg15
I18
sg16
I01
sa(dp310
g8
I00
sg9
F0.016654606994961796
sg10
F4.8955364387420559
sg11
I294
sg12
I0
sg13
g14
sg15
I18
sg16
I01
sa(dp311
g8
I00
sg9
F0.016614978283541859
sg10
F4.9121488511382267
sg11
I295
sg12
I0
sg13
g14
sg15
I18
sg16
I01
sa(dp312
g8
I00
sg9
F0.016639781865706027
sg10
F4.9287866373133511
sg11
I296
sg12
I0
sg13
g14
sg15
I18
sg16
I01
sa(dp313
g8
I00
sg9
F0.01673072833000333
sg10
F4.9455210719252136
sg11
I297
sg12
I0
sg13
g14
sg15
I18
sg16
I01
sa(dp314
g8
I00
sg9
F0.016663159953168361
sg10
F4.9621842318792915
sg11
I298
sg12
I0
sg13
g14
sg15
I18
sg16
I01
sa(dp315
g8
I00
sg9
F0.016576489968429087
sg10
F4.9787535943814873
sg11
I299
sg12
I0
sg13
g14
sg15
I18
sg16
I01
sa(dp316
g8
I00
sg9
F0.016746123656048439
sg10
F4.9955478997071623
sg11
I300
sg12
I0
sg13
g14
sg15
I18
sg16
I01
sa(dp317
g8
I00
sg9
F0.016663445052472525
sg10
F5.0121708607530309
sg11
I301
sg12
I0
sg13
g14
sg15
I18
sg16
I00
sa(dp318
g8
I00
sg9
F0.016849614460625162
sg10
F5.0291288126954896
sg11
I302
sg12
I0
sg13
g14
sg15
I18
sg16
I00
sa(dp319
g8
I00
sg9
F0.016668006630425225
sg10
F5.0457922577479621
sg11
I303
sg12
I0
sg13
g14
sg15
I18
sg16
I00
sa(dp320
g8
I00
sg9
F0.016653751698868291
sg10
F5.0624425882624564
sg11
I304
sg12
I0
sg13
g14
sg15
I18
sg16
I00
sa(dp321
g8
I00
sg9
F0.016670002321006905
sg10
F5.0791151564708343
sg11
I305
sg12
I0
sg13
g14
sg15
I18
sg16
I00
sa(dp322
g8
I00
sg9
F0.016648334823912592
sg10
F5.0957640614924458
sg11
I306
sg12
I0
sg13
g14
sg15
I18
sg16
I00
sa(dp323
g8
I00
sg9
F0.016688248633727198
sg10
F5.1124517399284741
sg11
I307
sg12
I0
sg13
g14
sg15
I18
sg16
I00
sa(dp324
g8
I00
sg9
F0.016637786174214853
sg10
F5.1290889559068091
sg11
I308
sg12
I0
sg13
g14
sg15
I18
sg16
I00
sa(dp325
g8
I00
sg9
F0.016600438253590255
sg10
F5.1456882537659112
sg11
I309
sg12
I0
sg13
g14
sg15
I18
sg16
I00
sa(dp326
g8
I00
sg9
F0.016662874855683185
sg10
F5.1624209777855867
sg11
I310
sg12
I0
sg13
g14
sg15
I18
sg16
I00
sa(dp327
g8
I00
sg9
F0.016662019558680186
sg10
F5.1790182799550166
sg11
I311
sg12
I0
sg13
g14
sg15
I18
sg16
I00
sa(dp328
g8
I00
sg9
F0.016676559589541284
sg10
F5.1956871418806259
sg11
I312
sg12
I0
sg13
g14
sg15
I18
sg16
I00
sa(dp329
g8
I00
sg9
F0.016621535552076239
sg10
F5.2123103880248891
sg11
I313
sg12
I0
sg13
g14
sg15
I18
sg16
I00
sa(dp330
g8
I00
sg9
F0.016796015917861951
sg10
F5.2291158121979606
sg11
I314
sg12
I0
sg13
g14
sg15
I18
sg16
I00
sa(dp331
g8
I00
sg9
F0.016619539862404054
sg10
F5.2457270841996433
sg11
I315
sg12
I0
sg13
g14
sg15
I18
sg16
I00
sa(dp332
g8
I00
sg9
F0.016649760317704931
sg10
F5.2623976567174395
sg11
I316
sg12
I0
sg13
g14
sg15
I18
sg16
I00
sa(dp333
g8
I00
sg9
F0.016664015249261865
sg10
F5.2790394342737272
sg11
I317
sg12
I0
sg13
g14
sg15
I18
sg16
I00
sa(dp334
g8
I00
sg9
F0.016658028177516826
sg10
F5.2957003134379192
sg11
I318
sg12
I0
sg13
g14
sg15
I18
sg16
I00
sa(dp335
g8
I00
sg9
F0.016667721532030555
sg10
F5.3123817197038079
sg11
I319
sg12
I0
sg13
g14
sg15
I18
sg16
I00
sa(dp336
g8
I00
sg9
F0.016649475218400767
sg10
F5.329081657381721
sg11
I320
sg12
I0
sg13
g14
sg15
I18
sg16
I00
sa(dp337
g8
I00
sg9
F0.016674563898959605
sg10
F5.3456903634951232
sg11
I321
sg12
I0
sg13
g14
sg15
I18
sg16
I00
sa(dp338
g8
I00
sg9
F0.016654892093356466
sg10
F5.362344970490085
sg11
I322
sg12
I0
sg13
g14
sg15
I18
sg16
I00
sa(dp339
g8
I00
sg9
F0.016660594065797341
sg10
F5.3790075602455545
sg11
I323
sg12
I0
sg13
g14
sg15
I18
sg16
I00
sa(dp340
g8
I00
sg9
F0.016664015249261865
sg10
F5.3956789880594442
sg11
I324
sg12
I0
sg13
g14
sg15
I18
sg16
I00
sa(dp341
g8
I00
sg9
F0.016657743079122156
sg10
F5.4123261824897781
sg11
I325
sg12
I0
sg13
g14
sg15
I18
sg16
I00
sa(dp342
g8
I00
sg9
F0.01667085761710041
sg10
F5.4289976103036679
sg11
I326
sg12
I0
sg13
g14
sg15
I18
sg16
I00
sa(dp343
g8
I00
sg9
F0.016657743079122156
sg10
F5.4456559235804889
sg11
I327
sg12
I0
sg13
g14
sg15
I18
sg16
I00
sa(dp344
g8
I00
sg9
F0.016655177191751136
sg10
F5.4623176580407744
sg11
I328
sg12
I0
sg13
g14
sg15
I18
sg16
I00
sa(dp345
g8
I00
sg9
F0.01666743643272639
sg10
F5.4789779670072676
sg11
I329
sg12
I0
sg13
g14
sg15
I18
sg16
I00
sa(dp346
g8
I00
sg9
F0.016661734460285516
sg10
F5.4957109761271568
sg11
I330
sg12
I0
sg13
g14
sg15
I18
sg16
I00
sa(dp347
g8
I00
sg9
F0.016722175370887271
sg10
F5.512363017233838
sg11
I331
sg12
I0
sg13
g14
sg15
I18
sg16
I00
sa(dp348
g8
I00
sg9
F0.016582477040174126
sg10
F5.5289657362764046
sg11
I332
sg12
I0
sg13
g14
sg15
I18
sg16
I00
sa(dp349
g8
I00
sg9
F0.016865579984369106
sg10
F5.5458144954409363
sg11
I333
sg12
I0
sg13
g14
sg15
I18
sg16
I00
sa(dp350
g8
I00
sg9
F0.016486398799315793
sg10
F5.5623524970933431
sg11
I334
sg12
I0
sg13
g14
sg15
I18
sg16
I00
sa(dp351
g8
I00
sg9
F0.016650045416099601
sg10
F5.5789529353478429
sg11
I335
sg12
I0
sg13
g14
sg15
I18
sg16
I00
sa(dp352
g8
I00
sg9
F0.016580196250288282
sg10
F5.5955359825838968
sg11
I336
sg12
I0
sg13
g14
sg15
I18
sg16
I00
sa(dp353
g8
I00
sg9
F0.016720464779609756
sg10
F5.6122433328264378
sg11
I337
sg12
I0
sg13
g14
sg15
I18
sg16
I00
sa(dp354
g8
I00
sg9
F0.016663445051563031
sg10
F5.6289198924159791
sg11
I338
sg12
I0
sg13
g14
sg15
I18
sg16
I00
sa(dp355
g8
I00
sg9
F0.0166645854469607
sg10
F5.6455859033549132
sg11
I339
sg12
I0
sg13
g14
sg15
I18
sg16
I00
sa(dp356
g8
I00
sg9
F0.016666296038238215
sg10
F5.6623240442495444
sg11
I340
sg12
I0
sg13
g14
sg15
I18
sg16
I00
sa(dp357
g8
I00
sg9
F0.01666943212330807
sg10
F5.6789110828676712
sg11
I341
sg12
I0
sg13
g14
sg15
I18
sg16
I00
sa(dp358
g8
I00
sg9
F0.016646339134240407
sg10
F5.6955625537766537
sg11
I342
sg12
I0
sg13
g14
sg15
I18
sg16
I00
sa(dp359
g8
I00
sg9
F0.016665725841448875
sg10
F5.7122314157031724
sg11
I343
sg12
I0
sg13
g14
sg15
I18
sg16
I00
sa(dp360
g8
I00
sg9
F0.016677985082424129
sg10
F5.7289011329248751
sg11
I344
sg12
I0
sg13
g14
sg15
I18
sg16
I00
sa(dp361
g8
I00
sg9
F0.016643488147565222
sg10
F5.7455488975519984
sg11
I345
sg12
I0
sg13
g14
sg15
I18
sg16
I00
sa(dp362
g8
I00
sg9
F0.016674278800564934
sg10
F5.7622188998730053
sg11
I346
sg12
I0
sg13
g14
sg15
I18
sg16
I00
sa(dp363
g8
I00
sg9
F0.016658313275911496
sg10
F5.7788880468979187
sg11
I347
sg12
I0
sg13
g14
sg15
I18
sg16
I00
sa(dp364
g8
I00
sg9
F0.01667114271549508
sg10
F5.7955657468819481
sg11
I348
sg12
I0
sg13
g14
sg15
I18
sg16
I00
sa(dp365
g8
I00
sg9
F0.016807990060442535
sg10
F5.8123557757280651
sg11
I349
sg12
I0
sg13
g14
sg15
I18
sg16
I00
sa(dp366
g8
I00
sg9
F0.016490105082084483
sg10
F5.8289259935263544
sg11
I350
sg12
I0
sg13
g14
sg15
I18
sg16
I00
sa(dp367
g8
I00
sg9
F0.016671427812980255
sg10
F5.8455321337523856
sg11
I351
sg12
I0
sg13
g14
sg15
I18
sg16
I00
sa(dp368
g8
I00
sg9
F0.016657457981636981
sg10
F5.8621739113086733
sg11
I352
sg12
I0
sg13
g14
sg15
I18
sg16
I00
sa(dp369
g8
I00
sg9
F0.016659738769703836
sg10
F5.8788322245854943
sg11
I353
sg12
I0
sg13
g14
sg15
I18
sg16
I00
sa(dp370
g8
I00
sg9
F0.016663159953168361
sg10
F5.8954988057221271
sg11
I354
sg12
I0
sg13
g14
sg15
I18
sg16
I00
sa(dp371
g8
I00
sg9
F0.016575634672335582
sg10
F5.9120938271016712
sg11
I355
sg12
I0
sg13
g14
sg15
I18
sg16
I00
sa(dp372
g8
I00
sg9
F0.016750115037211799
sg10
F5.9288259809245574
sg11
I356
sg12
I0
sg13
g14
sg15
I18
sg16
I00
sa(dp373
g8
I00
sg9
F0.016593025688962371
sg10
F5.9454546439437763
sg11
I357
sg12
I0
sg13
g14
sg15
I18
sg16
I00
sa(dp374
g8
I00
sg9
F0.016677414885634789
sg10
F5.9621197995875264
sg11
I358
sg12
I0
sg13
g14
sg15
I18
sg16
I00
sa(dp375
g8
I00
sg9
F0.016641207358588872
sg10
F5.9787778277650432
sg11
I359
sg12
I0
sg13
g14
sg15
I18
sg16
I00
sa(dp376
g8
I00
sg9
F0.016675704293447779
sg10
F5.995500858432024
sg11
I360
sg12
I0
sg13
g14
sg15
I18
sg16
I00
sa(dp377
g8
I00
sg9
F0.016657457980727486
sg10
F6.0121218237873109
sg11
I361
sg12
I0
sg13
g14
sg15
I16
sg16
I01
sa(dp378
g8
I00
sg9
F0.016652041106681281
sg10
F6.0288086469281552
sg11
I362
sg12
I0
sg13
g14
sg15
I16
sg16
I01
sa(dp379
g8
I00
sg9
F0.016729017737816321
sg10
F6.045534243482507
sg11
I363
sg12
I0
sg13
g14
sg15
I16
sg16
I01
sa(dp380
g8
I00
sg9
F0.01667171291228442
sg10
F6.0622062414940956
sg11
I364
sg12
I0
sg13
g14
sg15
I16
sg16
I01
sa(dp381
g8
I00
sg9
F0.016648049726427416
sg10
F6.0788582826007769
sg11
I365
sg12
I0
sg13
g14
sg15
I16
sg16
I01
sa(dp382
g8
I00
sg9
F0.016661164262586681
sg10
F6.0955220127507346
sg11
I366
sg12
I0
sg13
g14
sg15
I16
sg16
I01
sa(dp383
g8
I00
sg9
F0.01659958295749675
sg10
F6.1119311498205207
sg11
I367
sg12
I0
sg13
g14
sg15
I16
sg16
I01
sa(dp384
g8
I00
sg9
F0.016522891424756381
sg10
F6.12845233065309
sg11
I368
sg12
I0
sg13
g14
sg15
I16
sg16
I01
sa(dp385
g8
I00
sg9
F0.016661164263496175
sg10
F6.1451126396204927
sg11
I369
sg12
I0
sg13
g14
sg15
I16
sg16
I01
sa(dp386
g8
I00
sg9
F0.016661449360981351
sg10
F6.1618131474951952
sg11
I370
sg12
I0
sg13
g14
sg15
I16
sg16
I01
sa(dp387
g8
I00
sg9
F0.016659168572914496
sg10
F6.1784335426527832
sg11
I371
sg12
I0
sg13
g14
sg15
I16
sg16
I01
sa(dp388
g8
I00
sg9
F0.016666296038238215
sg10
F6.1950995535926268
sg11
I372
sg12
I0
sg13
g14
sg15
I16
sg16
I01
sa(dp389
g8
I00
sg9
F0.016587323716521496
sg10
F6.2116871624075429
sg11
I373
sg12
I0
sg13
g14
sg15
I16
sg16
I01
sa(dp390
g8
I00
sg9
F0.016731298527702165
sg10
F6.2284193162313386
sg11
I374
sg12
I0
sg13
g14
sg15
I16
sg16
I01
sa(dp391
g8
I00
sg9
F0.016660308966493176
sg10
F6.2450793400994371
sg11
I375
sg12
I0
sg13
g14
sg15
I16
sg16
I01
sa(dp392
g8
I00
sg9
F0.016636645780636172
sg10
F6.2617182666690496
sg11
I376
sg12
I0
sg13
g14
sg15
I16
sg16
I01
sa(dp393
g8
I00
sg9
F0.016687393337633694
sg10
F6.2784042345138005
sg11
I377
sg12
I0
sg13
g14
sg15
I16
sg16
I01
sa(dp394
g8
I00
sg9
F0.01666743643272639
sg10
F6.2950699603543399
sg11
I378
sg12
I0
sg13
g14
sg15
I16
sg16
I01
sa(dp395
g8
I00
sg9
F0.016654036797262961
sg10
F6.3117239971516028
sg11
I379
sg12
I0
sg13
g14
sg15
I16
sg16
I01
sa(dp396
g8
I00
sg9
F0.016592170392868866
sg10
F6.328358932340052
sg11
I380
sg12
I0
sg13
g14
sg15
I16
sg16
I01
sa(dp397
g8
I00
sg9
F0.016729587935515156
sg10
F6.3450474660721738
sg11
I381
sg12
I0
sg13
g14
sg15
I16
sg16
I01
sa(dp398
g8
I00
sg9
F0.01666287485477369
sg10
F6.3617097707301582
sg11
I382
sg12
I0
sg13
g14
sg15
I16
sg16
I01
sa(dp399
g8
I00
sg9
F0.016658028178426321
sg10
F6.3783683691053739
sg11
I383
sg12
I0
sg13
g14
sg15
I16
sg16
I01
sa(dp400
g8
I00
sg9
F0.016661449361890845
sg10
F6.3950306737624487
sg11
I384
sg12
I0
sg13
g14
sg15
I16
sg16
I01
sa(dp401
g8
I00
sg9
F0.01659502137954405
sg10
F6.4116219888601336
sg11
I385
sg12
I0
sg13
g14
sg15
I16
sg16
I01
sa(dp402
g8
I00
sg9
F0.016717043595235737
sg10
F6.4283401728498575
sg11
I386
sg12
I0
sg13
g14
sg15
I16
sg16
I01
sa(dp403
g8
I00
sg9
F0.01667399370126077
sg10
F6.4450147367488171
sg11
I387
sg12
I0
sg13
g14
sg15
I16
sg16
I01
sa(dp404
g8
I00
sg9
F0.016661449361890845
sg10
F6.461678751998079
sg11
I388
sg12
I0
sg13
g14
sg15
I16
sg16
I01
sa(dp405
g8
I00
sg9
F0.016654321895657631
sg10
F6.4783296527102721
sg11
I389
sg12
I0
sg13
g14
sg15
I16
sg16
I01
sa(dp406
g8
I00
sg9
F0.01666515564375004
sg10
F6.4950381433463917
sg11
I390
sg12
I0
sg13
g14
sg15
I16
sg16
I01
sa(dp407
g8
I00
sg9
F0.016604429634753615
sg10
F6.5116000932848692
sg11
I391
sg12
I0
sg13
g14
sg15
I16
sg16
I01
sa(dp408
g8
I00
sg9
F0.016717043596145231
sg10
F6.528317136880105
sg11
I392
sg12
I0
sg13
g14
sg15
I16
sg16
I01
sa(dp409
g8
I00
sg9
F0.016662589755469526
sg10
F6.5449805819325775
sg11
I393
sg12
I0
sg13
g14
sg15
I16
sg16
I01
sa(dp410
g8
I00
sg9
F0.01666857682812406
sg10
F6.5616520097464672
sg11
I394
sg12
I0
sg13
g14
sg15
I16
sg16
I01
sa(dp411
g8
I00
sg9
F0.016647479527819087
sg10
F6.5782943574995443
sg11
I395
sg12
I0
sg13
g14
sg15
I16
sg16
I01
sa(dp412
g8
I00
sg9
F0.016666010939843545
sg10
F6.5949620790306653
sg11
I396
sg12
I0
sg13
g14
sg15
I16
sg16
I01
sa(dp413
g8
I00
sg9
F0.016670287419401575
sg10
F6.6116300856610906
sg11
I397
sg12
I0
sg13
g14
sg15
I16
sg16
I01
sa(dp414
g8
I00
sg9
F0.016656887783938146
sg10
F6.6282901095291891
sg11
I398
sg12
I0
sg13
g14
sg15
I16
sg16
I01
sa(dp415
g8
I00
sg9
F0.016656032486935146
sg10
F6.6449450016225455
sg11
I399
sg12
I0
sg13
g14
sg15
I16
sg16
I01
sa(dp416
g8
I00
sg9
F0.016660879165101505
sg10
F6.6616486455823178
sg11
I400
sg12
I0
sg13
g14
sg15
I16
sg16
I01
sa(dp417
g8
I00
sg9
F0.016659738769703836
sg10
F6.6782644791619532
sg11
I401
sg12
I0
sg13
g14
sg15
I16
sg16
I01
sa(dp418
g8
I00
sg9
F0.016660023868098506
sg10
F6.6949262136222387
sg11
I402
sg12
I0
sg13
g14
sg15
I16
sg16
I01
sa(dp419
g8
I00
sg9
F0.016659738769703836
sg10
F6.7115848119974544
sg11
I403
sg12
I0
sg13
g14
sg15
I16
sg16
I01
sa(dp420
g8
I00
sg9
F0.016666010939843545
sg10
F6.7282525335294849
sg11
I404
sg12
I0
sg13
g14
sg15
I16
sg16
I01
sa(dp421
g8
I00
sg9
F0.016658313276820991
sg10
F6.7449074256228414
sg11
I405
sg12
I0
sg13
g14
sg15
I16
sg16
I01
sa(dp422
g8
I00
sg9
F0.016660594065797341
sg10
F6.7615697302799163
sg11
I406
sg12
I0
sg13
g14
sg15
I16
sg16
I01
sa(dp423
g8
I00
sg9
F0.016663159953168361
sg10
F6.7782377369103415
sg11
I407
sg12
I0
sg13
g14
sg15
I16
sg16
I01
sa(dp424
g8
I00
sg9
F0.016656602685543476
sg10
F6.7948900631154174
sg11
I408
sg12
I0
sg13
g14
sg15
I16
sg16
I01
sa(dp425
g8
I00
sg9
F0.016565371121032513
sg10
F6.8114947778485657
sg11
I409
sg12
I0
sg13
g14
sg15
I16
sg16
I01
sa(dp426
g8
I00
sg9
F0.016708205537725007
sg10
F6.828200132400525
sg11
I410
sg12
I0
sg13
g14
sg15
I16
sg16
I01
sa(dp427
g8
I00
sg9
F0.016648905021611426
sg10
F6.8448099789084154
sg11
I411
sg12
I0
sg13
g14
sg15
I16
sg16
I01
sa(dp428
g8
I00
sg9
F0.016722460470191436
sg10
F6.8615341499698843
sg11
I412
sg12
I0
sg13
g14
sg15
I16
sg16
I01
sa(dp429
g8
I00
sg9
F0.01652745300270908
sg10
F6.8780516245205945
sg11
I413
sg12
I0
sg13
g14
sg15
I16
sg16
I01
sa(dp430
g8
I00
sg9
F0.016795730818557786
sg10
F6.8948567635952713
sg11
I414
sg12
I0
sg13
g14
sg15
I16
sg16
I01
sa(dp431
g8
I00
sg9
F0.016616688875728869
sg10
F6.9114711716820239
sg11
I415
sg12
I0
sg13
g14
sg15
I16
sg16
I01
sa(dp432
g8
I00
sg9
F0.016572213488871057
sg10
F6.9279974842902448
sg11
I416
sg12
I0
sg13
g14
sg15
I16
sg16
I01
sa(dp433
g8
I00
sg9
F0.016978193945760722
sg10
F6.9449967755344915
sg11
I417
sg12
I0
sg13
g14
sg15
I16
sg16
I01
sa(dp434
g8
I00
sg9
F0.020812485496207955
sg10
F6.9658161033976285
sg11
I418
sg12
I0
sg13
g14
sg15
I16
sg16
I01
sa(dp435
g8
I00
sg9
F0.012339924242951383
sg10
F6.9781126926482102
sg11
I419
sg12
I0
sg13
g14
sg15
I16
sg16
I01
sa(dp436
g8
I00
sg9
F0.016695376099960413
sg10
F6.9948345829207028
sg11
I420
sg12
I0
sg13
g14
sg15
I16
sg16
I01
sa(dp437
g8
I00
sg9
F0.016629233215098793
sg10
F7.0114373019632694
sg11
I421
sg12
I0
sg13
g14
sg15
I16
sg16
I00
sa(dp438
g8
I00
sg9
F0.016652041106681281
sg10
F7.0280656798831842
sg11
I422
sg12
I0
sg13
g14
sg15
I16
sg16
I00
sa(dp439
g8
I00
sg9
F0.016851610152116336
sg10
F7.0451097316145024
sg11
I423
sg12
I0
sg13
g14
sg15
I16
sg16
I00
sa(dp440
g8
I00
sg9
F0.016613837889053684
sg10
F7.061741245619487
sg11
I424
sg12
I0
sg13
g14
sg15
I16
sg16
I00
sa(dp441
g8
I00
sg9
F0.016466726993712655
sg10
F7.0780075482716711
sg11
I425
sg12
I0
sg13
g14
sg15
I16
sg16
I00
sa(dp442
g8
I00
sg9
F0.016652326205075951
sg10
F7.0946612999705394
sg11
I426
sg12
I0
sg13
g14
sg15
I16
sg16
I00
sa(dp443
g8
I00
sg9
F0.016853605841788522
sg10
F7.111692522262274
sg11
I427
sg12
I0
sg13
g14
sg15
I16
sg16
I00
sa(dp444
g8
I00
sg9
F0.016681976463587489
sg10
F7.1283790603038142
sg11
I428
sg12
I0
sg13
g14
sg15
I16
sg16
I00
sa(dp445
g8
I00
sg9
F0.016630088512101793
sg10
F7.1450071531253343
sg11
I429
sg12
I0
sg13
g14
sg15
I16
sg16
I00
sa(dp446
g8
I00
sg9
F0.016655462290145806
sg10
F7.1617475748089419
sg11
I430
sg12
I0
sg13
g14
sg15
I16
sg16
I00
sa(dp447
g8
I00
sg9
F0.016675704293447779
sg10
F7.1783420259907871
sg11
I431
sg12
I0
sg13
g14
sg15
I16
sg16
I00
sa(dp448
g8
I00
sg9
F0.016658883473610331
sg10
F7.1950123134101887
sg11
I432
sg12
I0
sg13
g14
sg15
I16
sg16
I00
sa(dp449
g8
I00
sg9
F0.016648619923216756
sg10
F7.2116463933034538
sg11
I433
sg12
I0
sg13
g14
sg15
I16
sg16
I00
sa(dp450
g8
I00
sg9
F0.016661734460285516
sg10
F7.2283209572015039
sg11
I434
sg12
I0
sg13
g14
sg15
I16
sg16
I00
sa(dp451
g8
I00
sg9
F0.016604999831542955
sg10
F7.2449125573975834
sg11
I435
sg12
I0
sg13
g14
sg15
I16
sg16
I00
sa(dp452
g8
I00
sg9
F0.016767791153142753
sg10
F7.2616803485507262
sg11
I436
sg12
I0
sg13
g14
sg15
I16
sg16
I00
sa(dp453
g8
I00
sg9
F0.016609276311100984
sg10
F7.2782896248618272
sg11
I437
sg12
I0
sg13
g14
sg15
I16
sg16
I00
sa(dp454
g8
I00
sg9
F0.01667342350447143
sg10
F7.2949658993529738
sg11
I438
sg12
I0
sg13
g14
sg15
I16
sg16
I00
sa(dp455
g8
I00
sg9
F0.016676844687935954
sg10
F7.3116424589416056
sg11
I439
sg12
I0
sg13
g14
sg15
I16
sg16
I00
sa(dp456
g8
I00
sg9
F0.016692810211679898
sg10
F7.3284014120372376
sg11
I440
sg12
I0
sg13
g14
sg15
I16
sg16
I00
sa(dp457
g8
I00
sg9
F0.016662019558680186
sg10
F7.3449932973317118
sg11
I441
sg12
I0
sg13
g14
sg15
I16
sg16
I00
sa(dp458
g8
I00
sg9
F0.01666886192651873
sg10
F7.3616641549479027
sg11
I442
sg12
I0
sg13
g14
sg15
I16
sg16
I00
sa(dp459
g8
I00
sg9
F0.016662304657074856
sg10
F7.3783333019728161
sg11
I443
sg12
I0
sg13
g14
sg15
I16
sg16
I00
sa(dp460
g8
I00
sg9
F0.016657457980727486
sg10
F7.3949853430794974
sg11
I444
sg12
I0
sg13
g14
sg15
I16
sg16
I00
sa(dp461
g8
I00
sg9
F0.0166645854469607
sg10
F7.4116524944138291
sg11
I445
sg12
I0
sg13
g14
sg15
I16
sg16
I00
sa(dp462
g8
I00
sg9
F0.01659929785910208
sg10
F7.4282472306949785
sg11
I446
sg12
I0
sg13
g14
sg15
I16
sg16
I00
sa(dp463
g8
I00
sg9
F0.016654892092446971
sg10
F7.4449024078867296
sg11
I447
sg12
I0
sg13
g14
sg15
I16
sg16
I00
sa(dp464
g8
I00
sg9
F0.016766080560955743
sg10
F7.4616759010114038
sg11
I448
sg12
I0
sg13
g14
sg15
I16
sg16
I00
sa(dp465
g8
I00
sg9
F0.016614978284451354
sg10
F7.4782900239997616
sg11
I449
sg12
I0
sg13
g14
sg15
I16
sg16
I00
sa(dp466
g8
I00
sg9
F0.01666971722170274
sg10
F7.4950341519661379
sg11
I450
sg12
I0
sg13
g14
sg15
I16
sg16
I00
sa(dp467
g8
I00
sg9
F0.016748404445934284
sg10
F7.5116995927082826
sg11
I451
sg12
I0
sg13
g14
sg15
I16
sg16
I00
sa(dp468
g8
I00
sg9
F0.016757527601839683
sg10
F7.5284622520857738
sg11
I452
sg12
I0
sg13
g14
sg15
I16
sg16
I00
sa(dp469
g8
I00
sg9
F0.016417119831203308
sg10
F7.5448762358319073
sg11
I453
sg12
I0
sg13
g14
sg15
I16
sg16
I00
sa(dp470
g8
I00
sg9
F0.016657457980727486
sg10
F7.5615314130236584
sg11
I454
sg12
I0
sg13
g14
sg15
I16
sg16
I00
sa(dp471
g8
I00
sg9
F0.016655747388540476
sg10
F7.5781971388641978
sg11
I455
sg12
I0
sg13
g14
sg15
I16
sg16
I00
sa(dp472
g8
I00
sg9
F0.016663730150867195
sg10
F7.5948520309575542
sg11
I456
sg12
I0
sg13
g14
sg15
I16
sg16
I00
sa(dp473
g8
I00
sg9
F0.01666686623593705
sg10
F7.6115228885737451
sg11
I457
sg12
I0
sg13
g14
sg15
I16
sg16
I00
sa(dp474
g8
I00
sg9
F0.016700507874702453
sg10
F7.6282199752649831
sg11
I458
sg12
I0
sg13
g14
sg15
I16
sg16
I00
sa(dp475
g8
I00
sg9
F0.016682546660376829
sg10
F7.6449133556743618
sg11
I459
sg12
I0
sg13
g14
sg15
I16
sg16
I00
sa(dp476
g8
I00
sg9
F0.016664300347656535
sg10
F7.6616503561745049
sg11
I460
sg12
I0
sg13
g14
sg15
I16
sg16
I00
sa(dp477
g8
I00
sg9
F0.016657743080031651
sg10
F7.6782325481153748
sg11
I461
sg12
I0
sg13
g14
sg15
I16
sg16
I00
sa(dp478
g8
I00
sg9
F0.016662589755469526
sg10
F7.6948982739559142
sg11
I462
sg12
I0
sg13
g14
sg15
I16
sg16
I00
sa(dp479
g8
I00
sg9
F0.016660308967402671
sg10
F7.7115600084161997
sg11
I463
sg12
I0
sg13
g14
sg15
I16
sg16
I00
sa(dp480
g8
I00
sg9
F0.01666230465798435
sg10
F7.7282194620875089
sg11
I464
sg12
I0
sg13
g14
sg15
I16
sg16
I00
sa(dp481
g8
I00
sg9
F0.016660023868098506
sg10
F7.744877205166631
sg11
I465
sg12
I0
sg13
g14
sg15
I16
sg16
I00
sa(dp482
g8
I00
sg9
F0.016664015249261865
sg10
F7.7615454968963604
sg11
I466
sg12
I0
sg13
g14
sg15
I16
sg16
I00
sa(dp483
g8
I00
sg9
F0.016645483838146902
sg10
F7.7781906956352032
sg11
I467
sg12
I0
sg13
g14
sg15
I16
sg16
I00
sa(dp484
g8
I00
sg9
F0.016602148845777265
sg10
F7.7948042484258622
sg11
I468
sg12
I0
sg13
g14
sg15
I16
sg16
I00
sa(dp485
g8
I00
sg9
F0.016659168572005001
sg10
F7.8114694040705217
sg11
I469
sg12
I0
sg13
g14
sg15
I16
sg16
I00
sa(dp486
g8
I00
sg9
F0.016725026357562456
sg10
F7.8282334889408958
sg11
I470
sg12
I0
sg13
g14
sg15
I16
sg16
I00
sa(dp487
g8
I00
sg9
F0.016660594065797341
sg10
F7.8448259444321593
sg11
I471
sg12
I0
sg13
g14
sg15
I16
sg16
I00
sa(dp488
g8
I00
sg9
F0.016666581136632885
sg10
F7.8614902447807253
sg11
I472
sg12
I0
sg13
g14
sg15
I16
sg16
I00
sa(dp489
g8
I00
sg9
F0.016653181501169456
sg10
F7.8781457070708711
sg11
I473
sg12
I0
sg13
g14
sg15
I16
sg16
I00
sa(dp490
g8
I00
sg9
F0.016671712913193915
sg10
F7.8948182752792491
sg11
I474
sg12
I0
sg13
g14
sg15
I16
sg16
I00
sa(dp491
g8
I00
sg9
F0.016647194429424417
sg10
F7.9114640442157906
sg11
I475
sg12
I0
sg13
g14
sg15
I16
sg16
I00
sa(dp492
g8
I00
sg9
F0.016664015249261865
sg10
F7.9281303402540289
sg11
I476
sg12
I0
sg13
g14
sg15
I16
sg16
I00
sa(dp493
g8
I00
sg9
F0.01666287485477369
sg10
F7.9447883684324552
sg11
I477
sg12
I0
sg13
g14
sg15
I16
sg16
I00
sa(dp494
g8
I00
sg9
F0.016670287419401575
sg10
F7.9614592260486461
sg11
I478
sg12
I0
sg13
g14
sg15
I16
sg16
I00
sa(dp495
g8
I00
sg9
F0.016657172882332816
sg10
F7.9781195350160488
sg11
I479
sg12
I0
sg13
g14
sg15
I16
sg16
I00
sa(dp496
g8
I00
sg9
F0.016657457980727486
sg10
F7.994844276274307
sg11
I480
sg12
I0
sg13
g14
sg15
I16
sg16
I00
sa(dp497
g8
I00
sg9
F0.016661164262586681
sg10
F8.011452697290224
sg11
I481
sg12
I0
sg13
g14
sg15
I11
sg16
I01
sa(dp498
g8
I00
sg9
F0.016655462291055301
sg10
F8.0281526349672276
sg11
I482
sg12
I0
sg13
g14
sg15
I11
sg16
I01
sa(dp499
g8
I00
sg9
F0.016668291728819895
sg10
F8.0448243478804216
sg11
I483
sg12
I0
sg13
g14
sg15
I11
sg16
I01
sa(dp500
g8
I00
sg9
F0.016416834731899144
sg10
F8.0610570088938402
sg11
I484
sg12
I0
sg13
g14
sg15
I11
sg16
I01
sa(dp501
g8
I00
sg9
F0.016782901380793191
sg10
F8.0779938635369035
sg11
I485
sg12
I0
sg13
g14
sg15
I11
sg16
I01
sa(dp502
g8
I00
sg9
F0.016605284929937625
sg10
F8.0945196059483351
sg11
I486
sg12
I0
sg13
g14
sg15
I11
sg16
I01
sa(dp503
g8
I00
sg9
F0.01673471971116669
sg10
F8.1112560362507793
sg11
I487
sg12
I0
sg13
g14
sg15
I11
sg16
I01
sa(dp504
g8
I00
sg9
F0.016660879164192011
sg10
F8.12792062169774
sg11
I488
sg12
I0
sg13
g14
sg15
I11
sg16
I01
sa(dp505
g8
I00
sg9
F0.016585898223638651
sg10
F8.1444361005578685
sg11
I489
sg12
I0
sg13
g14
sg15
I11
sg16
I01
sa(dp506
g8
I00
sg9
F0.01674213227488508
sg10
F8.1612934126824257
sg11
I490
sg12
I0
sg13
g14
sg15
I11
sg16
I01
sa(dp507
g8
I00
sg9
F0.016652326205985446
sg10
F8.1778986976123633
sg11
I491
sg12
I0
sg13
g14
sg15
I11
sg16
I01
sa(dp508
g8
I00
sg9
F0.016663730149957701
sg10
F8.1945587214813713
sg11
I492
sg12
I0
sg13
g14
sg15
I11
sg16
I01
sa(dp509
g8
I00
sg9
F0.016606710423729965
sg10
F8.2111705636798433
sg11
I493
sg12
I0
sg13
g14
sg15
I11
sg16
I01
sa(dp510
g8
I00
sg9
F0.016704784354260482
sg10
F8.2278736374428263
sg11
I494
sg12
I0
sg13
g14
sg15
I11
sg16
I01
sa(dp511
g8
I00
sg9
F0.016617544171822374
sg10
F8.2444025159384182
sg11
I495
sg12
I0
sg13
g14
sg15
I11
sg16
I01
sa(dp512
g8
I00
sg9
F0.016658883474519826
sg10
F8.2610602590184499
sg11
I496
sg12
I0
sg13
g14
sg15
I11
sg16
I01
sa(dp513
g8
I00
sg9
F0.01666715133433172
sg10
F8.2777285507472698
sg11
I497
sg12
I0
sg13
g14
sg15
I11
sg16
I01
sa(dp514
g8
I00
sg9
F0.016658028177516826
sg10
F8.2943874342208801
sg11
I498
sg12
I0
sg13
g14
sg15
I11
sg16
I01
sa(dp515
g8
I00
sg9
F0.016604714733148285
sg10
F8.3109924340524231
sg11
I499
sg12
I0
sg13
g14
sg15
I11
sg16
I01
sa(dp516
g8
I00
sg9
F0.016864724689185095
sg10
F8.3281163134015515
sg11
I500
sg12
I0
sg13
g14
sg15
I11
sg16
I01
sa(dp517
g8
I00
sg9
F0.016577630362917262
sg10
F8.3446149714418425
sg11
I501
sg12
I0
sg13
g14
sg15
I11
sg16
I01
sa(dp518
g8
I00
sg9
F0.016720464778700261
sg10
F8.3613126283307793
sg11
I502
sg12
I0
sg13
g14
sg15
I11
sg16
I01
sa(dp519
g8
I00
sg9
F0.016557958557314123
sg10
F8.3778406515302777
sg11
I503
sg12
I0
sg13
g14
sg15
I11
sg16
I01
sa(dp520
g8
I00
sg9
F0.016778054703536327
sg10
F8.3946184211354193
sg11
I504
sg12
I0
sg13
g14
sg15
I11
sg16
I01
sa(dp521
g8
I00
sg9
F0.016640922259284707
sg10
F8.4112619092829846
sg11
I505
sg12
I0
sg13
g14
sg15
I11
sg16
I01
sa(dp522
g8
I00
sg9
F0.016648334824822086
sg10
F8.4279099590085025
sg11
I506
sg12
I0
sg13
g14
sg15
I11
sg16
I01
sa(dp523
g8
I00
sg9
F0.016664300347656535
sg10
F8.4445808166256029
sg11
I507
sg12
I0
sg13
g14
sg15
I11
sg16
I01
sa(dp524
g8
I00
sg9
F0.016675419195053109
sg10
F8.461252814636282
sg11
I508
sg12
I0
sg13
g14
sg15
I11
sg16
I01
sa(dp525
g8
I00
sg9
F0.016648905021611426
sg10
F8.4779002941650106
sg11
I509
sg12
I0
sg13
g14
sg15
I11
sg16
I01
sa(dp526
g8
I00
sg9
F0.016670572517796245
sg10
F8.4946310224950139
sg11
I510
sg12
I0
sg13
g14
sg15
I11
sg16
I01
sa(dp527
g8
I00
sg9
F0.016500653731782222
sg10
F8.5109700252996845
sg11
I511
sg12
I0
sg13
g14
sg15
I11
sg16
I01
sa(dp528
g8
I00
sg9
F0.016662304657074856
sg10
F8.5276320448592742
sg11
I512
sg12
I0
sg13
g14
sg15
I11
sg16
I01
sa(dp529
g8
I00
sg9
F0.016663159953168361
sg10
F8.5442972005030242
sg11
I513
sg12
I0
sg13
g14
sg15
I11
sg16
I01
sa(dp530
g8
I00
sg9
F0.016654892093356466
sg10
F8.560950952200983
sg11
I514
sg12
I0
sg13
g14
sg15
I11
sg16
I01
sa(dp531
g8
I00
sg9
F0.016660879164192011
sg10
F8.5776132568589674
sg11
I515
sg12
I0
sg13
g14
sg15
I11
sg16
I01
sa(dp532
g8
I00
sg9
F0.016662019558680186
sg10
F8.5942798379956002
sg11
I516
sg12
I0
sg13
g14
sg15
I11
sg16
I01
sa(dp533
g8
I00
sg9
F0.016725026357562456
sg10
F8.6110296679344174
sg11
I517
sg12
I0
sg13
g14
sg15
I11
sg16
I01
sa(dp534
g8
I00
sg9
F0.016649190120915591
sg10
F8.6276777176599353
sg11
I518
sg12
I0
sg13
g14
sg15
I11
sg16
I01
sa(dp535
g8
I00
sg9
F0.016688818830516539
sg10
F8.6444053099057783
sg11
I519
sg12
I0
sg13
g14
sg15
I11
sg16
I01
sa(dp536
g8
I00
sg9
F0.016551971485569084
sg10
F8.660955855897555
sg11
I520
sg12
I0
sg13
g14
sg15
I11
sg16
I01
sa(dp537
g8
I00
sg9
F0.016828517162139178
sg10
F8.6777433188563009
sg11
I521
sg12
I0
sg13
g14
sg15
I11
sg16
I01
sa(dp538
g8
I00
sg9
F0.016577915461311932
sg10
F8.6943206641208235
sg11
I522
sg12
I0
sg13
g14
sg15
I11
sg16
I01
sa(dp539
g8
I00
sg9
F0.016660879164192011
sg10
F8.7109826836795037
sg11
I523
sg12
I0
sg13
g14
sg15
I11
sg16
I01
sa(dp540
g8
I00
sg9
F0.016657172882332816
sg10
F8.7276384310680442
sg11
I524
sg12
I0
sg13
g14
sg15
I11
sg16
I01
sa(dp541
g8
I00
sg9
F0.016662304657074856
sg10
F8.7443001655283297
sg11
I525
sg12
I0
sg13
g14
sg15
I11
sg16
I01
sa(dp542
g8
I00
sg9
F0.016663445052472525
sg10
F8.7609656062713839
sg11
I526
sg12
I0
sg13
g14
sg15
I11
sg16
I01
sa(dp543
g8
I00
sg9
F0.016657457980727486
sg10
F8.777619072870948
sg11
I527
sg12
I0
sg13
g14
sg15
I11
sg16
I01
sa(dp544
g8
I00
sg9
F0.016648905021611426
sg10
F8.794273109668211
sg11
I528
sg12
I0
sg13
g14
sg15
I11
sg16
I01
sa(dp545
g8
I00
sg9
F0.016675134095748945
sg10
F8.8109465331726824
sg11
I529
sg12
I0
sg13
g14
sg15
I11
sg16
I01
sa(dp546
g8
I00
sg9
F0.01666629603914771
sg10
F8.8276578747954773
sg11
I530
sg12
I0
sg13
g14
sg15
I11
sg16
I01
sa(dp547
g8
I00
sg9
F0.016655747388540476
sg10
F8.8442685765994611
sg11
I531
sg12
I0
sg13
g14
sg15
I11
sg16
I01
sa(dp548
g8
I00
sg9
F0.016626097130938433
sg10
F8.8608923929414232
sg11
I532
sg12
I0
sg13
g14
sg15
I11
sg16
I01
sa(dp549
g8
I00
sg9
F0.016635220286843833
sg10
F8.877531034412641
sg11
I533
sg12
I0
sg13
g14
sg15
I11
sg16
I01
sa(dp550
g8
I00
sg9
F0.016660594065797341
sg10
F8.8941904880839502
sg11
I534
sg12
I0
sg13
g14
sg15
I11
sg16
I01
sa(dp551
g8
I00
sg9
F0.016709345932213182
sg10
F8.9109006893122569
sg11
I535
sg12
I0
sg13
g14
sg15
I11
sg16
I01
sa(dp552
g8
I00
sg9
F0.016699082381819608
sg10
F8.9276824502976524
sg11
I536
sg12
I0
sg13
g14
sg15
I11
sg16
I01
sa(dp553
g8
I00
sg9
F0.016622105749775073
sg10
F8.9442489618140826
sg11
I537
sg12
I0
sg13
g14
sg15
I11
sg16
I01
sa(dp554
g8
I00
sg9
F0.016685967844750849
sg10
F8.9609118366688563
sg11
I538
sg12
I0
sg13
g14
sg15
I11
sg16
I01
sa(dp555
g8
I00
sg9
F0.016654606994052301
sg10
F8.9775644479723269
sg11
I539
sg12
I0
sg13
g14
sg15
I11
sg16
I01
sa(dp556
g8
I00
sg9
F0.016660594065797341
sg10
F8.9942683770304939
sg11
I540
sg12
I0
sg13
g14
sg15
I11
sg16
I01
sa(dp557
g8
I00
sg9
F0.016660879164192011
sg10
F9.0108856361039216
sg11
I541
sg12
I0
sg13
g14
sg15
I11
sg16
I00
sa(dp558
g8
I00
sg9
F0.016650900712193106
sg10
F9.027494057118929
sg11
I542
sg12
I0
sg13
g14
sg15
I11
sg16
I00
sa(dp559
g8
I00
sg9
F0.01667085761710041
sg10
F9.0441691912155875
sg11
I543
sg12
I0
sg13
g14
sg15
I11
sg16
I00
sa(dp560
g8
I00
sg9
F0.01680342848158034
sg10
F9.0610869442507465
sg11
I544
sg12
I0
sg13
g14
sg15
I11
sg16
I00
sa(dp561
g8
I00
sg9
F0.016662019558680186
sg10
F9.077749534006216
sg11
I545
sg12
I0
sg13
g14
sg15
I11
sg16
I00
sa(dp562
g8
I00
sg9
F0.016650330515403766
sg10
F9.0943992943239209
sg11
I546
sg12
I0
sg13
g14
sg15
I11
sg16
I00
sa(dp563
g8
I00
sg9
F0.016647479528728581
sg10
F9.111050195036114
sg11
I547
sg12
I0
sg13
g14
sg15
I11
sg16
I00
sa(dp564
g8
I00
sg9
F0.016648905021611426
sg10
F9.1276931129868899
sg11
I548
sg12
I0
sg13
g14
sg15
I11
sg16
I00
sa(dp565
g8
I00
sg9
F0.016695946295840258
sg10
F9.1443924804671042
sg11
I549
sg12
I0
sg13
g14
sg15
I11
sg16
I00
sa(dp566
g8
I00
sg9
F0.016646624232635077
sg10
F9.1611001158071304
sg11
I550
sg12
I0
sg13
g14
sg15
I11
sg16
I00
sa(dp567
g8
I00
sg9
F0.016661164263496175
sg10
F9.1776954222859786
sg11
I551
sg12
I0
sg13
g14
sg15
I11
sg16
I00
sa(dp568
g8
I00
sg9
F0.016662019558680186
sg10
F9.1943580120414481
sg11
I552
sg12
I0
sg13
g14
sg15
I11
sg16
I00
sa(dp569
g8
I00
sg9
F0.016656032487844641
sg10
F9.2111055611912889
sg11
I553
sg12
I0
sg13
g14
sg15
I11
sg16
I00
sa(dp570
g8
I00
sg9
F0.0166691470249134
sg10
F9.227682051159718
sg11
I554
sg12
I0
sg13
g14
sg15
I11
sg16
I00
sa(dp571
g8
I00
sg9
F0.016698797282515443
sg10
F9.244397099064372
sg11
I555
sg12
I0
sg13
g14
sg15
I11
sg16
I00
sa(dp572
g8
I00
sg9
F0.016431659861154913
sg10
F9.2608127934026925
sg11
I556
sg12
I0
sg13
g14
sg15
I11
sg16
I00
sa(dp573
g8
I00
sg9
F0.016869286267137795
sg10
F9.2776832200643184
sg11
I557
sg12
I0
sg13
g14
sg15
I11
sg16
I00
sa(dp574
g8
I00
sg9
F0.016651185810587776
sg10
F9.2943401078473471
sg11
I558
sg12
I0
sg13
g14
sg15
I11
sg16
I00
sa(dp575
g8
I00
sg9
F0.01666886192651873
sg10
F9.3110078293793777
sg11
I559
sg12
I0
sg13
g14
sg15
I11
sg16
I00
sa(dp576
g8
I00
sg9
F0.016650045416099601
sg10
F9.3277228772840317
sg11
I560
sg12
I0
sg13
g14
sg15
I11
sg16
I00
sa(dp577
g8
I00
sg9
F0.016652326205075951
sg10
F9.3443067798170887
sg11
I561
sg12
I0
sg13
g14
sg15
I11
sg16
I00
sa(dp578
g8
I00
sg9
F0.016674278800564934
sg10
F9.3609799182222559
sg11
I562
sg12
I0
sg13
g14
sg15
I11
sg16
I00
sa(dp579
g8
I00
sg9
F0.016648619923216756
sg10
F9.3776296785399609
sg11
I563
sg12
I0
sg13
g14
sg15
I11
sg16
I00
sa(dp580
g8
I00
sg9
F0.01667199801067909
sg10
F9.3943031020444323
sg11
I564
sg12
I0
sg13
g14
sg15
I11
sg16
I00
sa(dp581
g8
I00
sg9
F0.016659453671309166
sg10
F9.4109611302228586
sg11
I565
sg12
I0
sg13
g14
sg15
I11
sg16
I00
sa(dp582
g8
I00
sg9
F0.016652326205075951
sg10
F9.4276154521185163
sg11
I566
sg12
I0
sg13
g14
sg15
I11
sg16
I00
sa(dp583
g8
I00
sg9
F0.01666857682812406
sg10
F9.4442831736496373
sg11
I567
sg12
I0
sg13
g14
sg15
I11
sg16
I00
sa(dp584
g8
I00
sg9
F0.01666715133433172
sg10
F9.4609548865628312
sg11
I568
sg12
I0
sg13
g14
sg15
I11
sg16
I00
sa(dp585
g8
I00
sg9
F0.016656317586239311
sg10
F9.4776100637536729
sg11
I569
sg12
I0
sg13
g14
sg15
I11
sg16
I00
sa(dp586
g8
I00
sg9
F0.016648049725517922
sg10
F9.4943228308702601
sg11
I570
sg12
I0
sg13
g14
sg15
I11
sg16
I00
sa(dp587
g8
I00
sg9
F0.016674848997354275
sg10
F9.5111251189573522
sg11
I571
sg12
I0
sg13
g14
sg15
I11
sg16
I00
sa(dp588
g8
I00
sg9
F0.016658028178426321
sg10
F9.5275889949652992
sg11
I572
sg12
I0
sg13
g14
sg15
I11
sg16
I00
sa(dp589
g8
I00
sg9
F0.016724456159863621
sg10
F9.5443160170125338
sg11
I573
sg12
I0
sg13
g14
sg15
I11
sg16
I00
sa(dp590
g8
I00
sg9
F0.016463305809338635
sg10
F9.5608075475875012
sg11
I574
sg12
I0
sg13
g14
sg15
I11
sg16
I00
sa(dp591
g8
I00
sg9
F0.016744698163165594
sg10
F9.5775166084213197
sg11
I575
sg12
I0
sg13
g14
sg15
I11
sg16
I00
sa(dp592
g8
I00
sg9
F0.016645768937451066
sg10
F9.5941626624562559
sg11
I576
sg12
I0
sg13
g14
sg15
I11
sg16
I00
sa(dp593
g8
I00
sg9
F0.016663159953168361
sg10
F9.610852336582866
sg11
I577
sg12
I0
sg13
g14
sg15
I11
sg16
I00
sa(dp594
g8
I00
sg9
F0.016677699984029459
sg10
F9.6275023819998751
sg11
I578
sg12
I0
sg13
g14
sg15
I11
sg16
I00
sa(dp595
g8
I00
sg9
F0.016640922259284707
sg10
F9.6441450148513468
sg11
I579
sg12
I0
sg13
g14
sg15
I11
sg16
I00
sa(dp596
g8
I00
sg9
F0.016673993702170264
sg10
F9.660885721633349
sg11
I580
sg12
I0
sg13
g14
sg15
I11
sg16
I00
sa(dp597
g8
I00
sg9
F0.016646624232635077
sg10
F9.6774847343940564
sg11
I581
sg12
I0
sg13
g14
sg15
I11
sg16
I00
sa(dp598
g8
I00
sg9
F0.01666258975637902
sg10
F9.6941293629361098
sg11
I582
sg12
I0
sg13
g14
sg15
I11
sg16
I00
sa(dp599
g8
I00
sg9
F0.016659738769703836
sg10
F9.7107908122980007
sg11
I583
sg12
I0
sg13
g14
sg15
I11
sg16
I00
sa(dp600
g8
I00
sg9
F0.016658313275911496
sg10
F9.7274465596865411
sg11
I584
sg12
I0
sg13
g14
sg15
I11
sg16
I00
sa(dp601
g8
I00
sg9
F0.016675989392751944
sg10
F9.7441219788815943
sg11
I585
sg12
I0
sg13
g14
sg15
I11
sg16
I00
sa(dp602
g8
I00
sg9
F0.016650045416099601
sg10
F9.7607902706104142
sg11
I586
sg12
I0
sg13
g14
sg15
I11
sg16
I00
sa(dp603
g8
I00
sg9
F0.01666743643272639
sg10
F9.7774388905336309
sg11
I587
sg12
I0
sg13
g14
sg15
I11
sg16
I00
sa(dp604
g8
I00
sg9
F0.01666515564375004
sg10
F9.7941202967995196
sg11
I588
sg12
I0
sg13
g14
sg15
I11
sg16
I00
sa(dp605
g8
I00
sg9
F0.016645768936541572
sg10
F9.81076663593376
sg11
I589
sg12
I0
sg13
g14
sg15
I11
sg16
I00
sa(dp606
g8
I00
sg9
F0.016708775735423842
sg10
F9.8277331408353348
sg11
I590
sg12
I0
sg13
g14
sg15
I11
sg16
I00
sa(dp607
g8
I00
sg9
F0.01680941555332538
sg10
F9.8442705722900428
sg11
I591
sg12
I0
sg13
g14
sg15
I11
sg16
I00
sa(dp608
g8
I00
sg9
F0.016469007782689005
sg10
F9.8607384396782436
sg11
I592
sg12
I0
sg13
g14
sg15
I11
sg16
I00
sa(dp609
g8
I00
sg9
F0.016625241834844928
sg10
F9.8773605454280187
sg11
I593
sg12
I0
sg13
g14
sg15
I11
sg16
I00
sa(dp610
g8
I00
sg9
F0.016705069453564647
sg10
F9.8940678956705597
sg11
I594
sg12
I0
sg13
g14
sg15
I11
sg16
I00
sa(dp611
g8
I00
sg9
F0.016650615612888942
sg10
F9.9107179410866593
sg11
I595
sg12
I0
sg13
g14
sg15
I11
sg16
I00
sa(dp612
g8
I00
sg9
F0.016658598375215661
sg10
F9.9273765394618749
sg11
I596
sg12
I0
sg13
g14
sg15
I11
sg16
I00
sa(dp613
g8
I00
sg9
F0.016666010939843545
sg10
F9.944043405697812
sg11
I597
sg12
I0
sg13
g14
sg15
I11
sg16
I00
sa(dp614
g8
I00
sg9
F0.01667085761710041
sg10
F9.9607142633140029
sg11
I598
sg12
I0
sg13
g14
sg15
I11
sg16
I00
sa(dp615
g8
I00
sg9
F0.016657743079122156
sg10
F9.9773737169853121
sg11
I599
sg12
I0
sg13
g14
sg15
I11
sg16
I00
sa(dp616
g8
I00
sg9
F0.016654892093356466
sg10
F9.9941027347231284
sg11
I600
sg12
I0
sg13
g14
sg15
I11
sg16
I00
sa(dp617
g8
I01
sg9
F0.016662304657074856
sg10
F10.010703458076023
sg11
I601
sg12
I1
sg13
g14
sg15
I11
sg16
I00
sa(dp618
g8
I01
sg9
F0.016670287419401575
sg10
F10.027359490562958
sg11
I602
sg12
I1
sg13
g14
sg15
I11
sg16
I00
sa(dp619
g8
I01
sg9
F0.016656887783028651
sg10
F10.044015808149197
sg11
I603
sg12
I1
sg13
g14
sg15
I11
sg16
I00
sa(dp620
g8
I01
sg9
F0.016657743080031651
sg10
F10.060677542609483
sg11
I604
sg12
I1
sg13
g14
sg15
I11
sg16
I00
sa(dp621
g8
I01
sg9
F0.016654036797262961
sg10
F10.077324166842118
sg11
I605
sg12
I1
sg13
g14
sg15
I11
sg16
I00
sa(dp622
g8
I01
sg9
F0.016666866235027555
sg10
F10.093996164853706
sg11
I606
sg12
I1
sg13
g14
sg15
I11
sg16
I00
sa(dp623
g8
I01
sg9
F0.016620395158497558
sg10
F10.11061000274276
sg11
I607
sg12
I1
sg13
g14
sg15
I11
sg16
I00
sa(dp624
g8
I01
sg9
F0.016709916129912017
sg10
F10.127325905944417
sg11
I608
sg12
I1
sg13
g14
sg15
I11
sg16
I00
sa(dp625
g8
I01
sg9
F0.016723885962164786
sg10
F10.144055778978327
sg11
I609
sg12
I1
sg13
g14
sg15
I11
sg16
I00
sa(dp626
g8
I01
sg9
F0.016660308967402671
sg10
F10.160788788097307
sg11
I610
sg12
I1
sg13
g14
sg15
I11
sg16
I00
sa(dp627
g8
I01
sg9
F0.016648334824822086
sg10
F10.177356440008225
sg11
I611
sg12
I1
sg13
g14
sg15
I11
sg16
I00
sa(dp628
g8
I01
sg9
F0.016655747388540476
sg10
F10.194019885059788
sg11
I612
sg12
I1
sg13
g14
sg15
I11
sg16
I00
sa(dp629
g8
I01
sg9
F0.016679695674611139
sg10
F10.210699295636005
sg11
I613
sg12
I1
sg13
g14
sg15
I11
sg16
I00
sa(dp630
g8
I01
sg9
F0.016655462290145806
sg10
F10.227354472827756
sg11
I614
sg12
I1
sg13
g14
sg15
I11
sg16
I00
sa(dp631
g8
I01
sg9
F0.016652326205075951
sg10
F10.244007654328925
sg11
I615
sg12
I1
sg13
g14
sg15
I11
sg16
I00
sa(dp632
g8
I01
sg9
F0.016661449361890845
sg10
F10.260668248393813
sg11
I616
sg12
I1
sg13
g14
sg15
I11
sg16
I00
sa(dp633
g8
I01
sg9
F0.016659738769703836
sg10
F10.277321144796588
sg11
I617
sg12
I1
sg13
g14
sg15
I11
sg16
I00
sa(dp634
g8
I01
sg9
F0.01660414453544945
sg10
F10.293931276403782
sg11
I618
sg12
I1
sg13
g14
sg15
I11
sg16
I00
sa(dp635
g8
I01
sg9
F0.016727307146538806
sg10
F10.310662004733786
sg11
I619
sg12
I1
sg13
g14
sg15
I11
sg16
I00
sa(dp636
g8
I01
sg9
F0.016649475219310261
sg10
F10.327386745992953
sg11
I620
sg12
I1
sg13
g14
sg15
I11
sg16
I00
sa(dp637
g8
I01
sg9
F0.01666487054535537
sg10
F10.343973214413381
sg11
I621
sg12
I1
sg13
g14
sg15
I11
sg16
I00
sa(dp638
g8
I01
sg9
F0.016623246144263248
sg10
F10.360603588023878
sg11
I622
sg12
I1
sg13
g14
sg15
I11
sg16
I00
sa(dp639
g8
I01
sg9
F0.016644913640448067
sg10
F10.377237953014628
sg11
I623
sg12
I1
sg13
g14
sg15
I11
sg16
I00
sa(dp640
g8
I01
sg9
F0.016670002321006905
sg10
F10.393910236124611
sg11
I624
sg12
I1
sg13
g14
sg15
I11
sg16
I00
sa(dp641
g8
I01
sg9
F0.016619254764009384
sg10
F10.410561421935199
sg11
I625
sg12
I1
sg13
g14
sg15
I11
sg16
I00
sa(dp642
g8
I01
sg9
F0.016675134095748945
sg10
F10.427223441494789
sg11
I626
sg12
I1
sg13
g14
sg15
I11
sg16
I00
sa(dp643
g8
I01
sg9
F0.016719039285817416
sg10
F10.443920528185117
sg11
I627
sg12
I1
sg13
g14
sg15
I11
sg16
I00
sa(dp644
g8
I01
sg9
F0.016690244324308878
sg10
F10.46061476389059
sg11
I628
sg12
I1
sg13
g14
sg15
I11
sg16
I00
sa(dp645
g8
I01
sg9
F0.016642347753077047
sg10
F10.477251124571922
sg11
I629
sg12
I1
sg13
g14
sg15
I11
sg16
I00
sa(dp646
g8
I01
sg9
F0.016625812031634268
sg10
F10.493951347348229
sg11
I630
sg12
I1
sg13
g14
sg15
I11
sg16
I00
sa(dp647
g8
I01
sg9
F0.016703929058166977
sg10
F10.510584857043796
sg11
I631
sg12
I1
sg13
g14
sg15
I11
sg16
I00
sa(dp648
g8
I01
sg9
F0.016661164263496175
sg10
F10.527245736207988
sg11
I632
sg12
I1
sg13
g14
sg15
I11
sg16
I00
sa(dp649
g8
I01
sg9
F0.016658313276820991
sg10
F10.54390661537218
sg11
I633
sg12
I1
sg13
g14
sg15
I11
sg16
I00
sa(dp650
g8
I01
sg9
F0.016666581136632885
sg10
F10.560598855386161
sg11
I634
sg12
I1
sg13
g14
sg15
I11
sg16
I00
sa(dp651
g8
I01
sg9
F0.016661449361890845
sg10
F10.577229514095052
sg11
I635
sg12
I1
sg13
g14
sg15
I11
sg16
I00
sa(dp652
g8
I01
sg9
F0.016657172882332816
sg10
F10.593888397569572
sg11
I636
sg12
I1
sg13
g14
sg15
I11
sg16
I00
sa(dp653
g8
I01
sg9
F0.016659738769703836
sg10
F10.611205573793086
sg11
I637
sg12
I1
sg13
g14
sg15
I11
sg16
I00
sasS'frameBit'
p654
I4
sS'rewarded'
p655
I00
sS'lickData'
p656
(cnumpy.core.multiarray
_reconstruct
p657
(cnumpy
ndarray
p658
(I0
tS'b'
tRp659
(I1
(L1L
tcnumpy
dtype
p660
(S'i8'
I0
I1
tRp661
(I3
S'<'
NNNI-1
I-1
I0
tbI00
S'}\x02\x00\x00\x00\x00\x00\x00'
tbg657
(g658
(I0
tS'b'
tRp662
(I1
(L1L
tg661
I00
S'\x00\x00\x00\x00\x00\x00\x00\x00'
tbtp663
sS'full_traceback_on'
p664
I00
sS'rewardvol'
p665
F0.0080000000000000002
sS'monitor'
p666
(dp667
S'sizepix'
p668
(lp669
I1024
aI768
asS'name'
p670
S'testMonitor'
p671
sS'gammagrid'
p672
(lp673
(lp674
F0
aF1
aF1
aFnan
aFnan
aFnan
aa(lp675
F0
aF1
aF1
aFnan
aFnan
aFnan
aa(lp676
F0
aF1
aF1
aFnan
aFnan
aFnan
aa(lp677
F0
aF1
aF1
aFnan
aFnan
aFnan
aasS'calibrationdate'
p678
S'time.struct_time(tm_year=2016, tm_mon=6, tm_mday=13, tm_hour=14, tm_min=56, tm_sec=19, tm_wday=0, tm_yday=165, tm_isdst=1)'
p679
sS'widthcm'
p680
I30
sS'distancecm'
p681
I15
sS'gamma'
p682
F1
ssS'vsig'
p683
g657
(g658
(I0
tS'b'
tRp684
(I1
(L638L
tg660
(S'f2'
I0
I1
tRp685
(I3
S'<'
NNNI-1
I-1
I0
tbI00
S'\x00~\x00~\x00~\x00~\x00~\x00~\x00~\x00~\x00~\x00~\x00~\x00~\x00~\x00~\x00~\x00~\x00~\x00~\x00~\x00~\x00~\x00~\x00~\x00~\x00~\x00~\x00~\x00~\x00~\x00~\x00~\x00~\x00~\x00~\x00~\x00~\x00~\x00~\x00~\x00~\x00~\x00~\x00~\x00~\x00~\x00~\x00~\x00~\x00~\x00~\x00~\x00~\x00~\x00~\x00~\x00~\x00~\x00~\x00~\x00~\x00~\x00~\x00~\x00~\x00~\x00~\x00~\x00~\x00~\x00~\x00~\x00~\x00~\x00~\x00~\x00~\x00~\x00~\x00~\x00~\x00~\x00~\x00~\x00~\x00~\x00~\x00~\x00~\x00~\x00~\x00~\x00~\x00~\x00~\x00~\x00~\x00~\x00~\x00~\x00~\x00~\x00~\x00~\x00~\x00~\x00~\x00~\x00~\x00~\x00~\x00~\x00~\x00~\x00~\x00~\x00~\x00~\x00~\x00~\x00~\x00~\x00~\x00~\x00~\x00~\x00~\x00~\x00~\x00~\x00~\x00~\x00~\x00~\x00~\x00~\x00~\x00~\x00~\x00~\x00~\x00~\x00~\x00~\x00~\x00~\x00~\x00~\x00~\x00~\x00~\x00~\x00~\x00~\x00~\x00~\x00~\x00~\x00~\x00~\x00~\x00~\x00~\x00~\x00~\x00~\x00~\x00~\x00~\x00~\x00~\x00~\x00~\x00~\x00~\x00~\x00~\x00~\x00~\x00~\x00~\x00~\x00~\x00~\x00~\x00~\x00~\x00~\x00~\x00~\x00~\x00~\x00~\x00~\x00~\x00~\x00~\x00~\x00~\x00~\x00~\x00~\x00~\x00~\x00~\x00~\x00~\x00~\x00~\x00~\x00~\x00~\x00~\x00~\x00~\x00~\x00~\x00~\x00~\x00~\x00~\x00~\x00~\x00~\x00~\x00~\x00~\x00~\x00~\x00~\x00~\x00~\x00~\x00~\x00~\x00~\x00~\x00~\x00~\x00~\x00~\x00~\x00~\x00~\x00~\x00~\x00~\x00~\x00~\x00~\x00~\x00~\x00~\x00~\x00~\x00~\x00~\x00~\x00~\x00~\x00~\x00~\x00~\x00~\x00~\x00~\x00~\x00~\x00~\x00~\x00~\x00~\x00~\x00~\x00~\x00~\x00~\x00~\x00~\x00~\x00~\x00~\x00~\x00~\x00~\x00~\x00~\x00~\x00~\x00~\x00~\x00~\x00~\x00~\x00~\x00~\x00~\x00~\x00~\x00~\x00~\x00~\x00~\x00~\x00~\x00~\x00~\x00~\x00~\x00~\x00~\x00~\x00~\x00~\x00~\x00~\x00~\x00~\x00~\x00~\x00~\x00~\x00~\x00~\x00~\x00~\x00~\x00~\x00~\x00~\x00~\x00~\x00~\x00~\x00~\x00~\x00~\x00~\x00~\x00~\x00~\x00~\x00~\x00~\x00~\x00~\x00~\x00~\x00~\x00~\x00~\x00~\x00~\x00~\x00~\x00~\x00~\x00~\x00~\x00~\x00~\x00~\x00~\x00~\x00~\x00~\x00~\x00~\x00~\x00~\x00~\x00~\x00~\x00~\x00~\x00~\x00~\x00~\x00~\x00~\x00~\x00~\x00~\x00~\x00~\x00~\x00~\x00~\x00~\x00~\x00~\x00~\x00~\x00~\x00~\x00~\x00~\x00~\x00~\x00~\x00~\x00~\x00~\x00~\x00~\x00~\x00~\x00~\x00~\x00~\x00~\x00~\x00~\x00~\x00~\x00~\x00~\x00~\x00~\x00~\x00~\x00~\x00~\x00~\x00~\x00~\x00~\x00~\x00~\x00~\x00~\x00~\x00~\x00~\x00~\x00~\x00~\x00~\x00~\x00~\x00~\x00~\x00~\x00~\x00~\x00~\x00~\x00~\x00~\x00~\x00~\x00~\x00~\x00~\x00~\x00~\x00~\x00~\x00~\x00~\x00~\x00~\x00~\x00~\x00~\x00~\x00~\x00~\x00~\x00~\x00~\x00~\x00~\x00~\x00~\x00~\x00~\x00~\x00~\x00~\x00~\x00~\x00~\x00~\x00~\x00~\x00~\x00~\x00~\x00~\x00~\x00~\x00~\x00~\x00~\x00~\x00~\x00~\x00~\x00~\x00~\x00~\x00~\x00~\x00~\x00~\x00~\x00~\x00~\x00~\x00~\x00~\x00~\x00~\x00~\x00~\x00~\x00~\x00~\x00~\x00~\x00~\x00~\x00~\x00~\x00~\x00~\x00~\x00~\x00~\x00~\x00~\x00~\x00~\x00~\x00~\x00~\x00~\x00~\x00~\x00~\x00~\x00~\x00~\x00~\x00~\x00~\x00~\x00~\x00~\x00~\x00~\x00~\x00~\x00~\x00~\x00~\x00~\x00~\x00~\x00~\x00~\x00~\x00~\x00~\x00~\x00~\x00~\x00~\x00~\x00~\x00~\x00~\x00~\x00~\x00~\x00~\x00~\x00~\x00~\x00~\x00~\x00~\x00~\x00~\x00~\x00~\x00~\x00~\x00~\x00~\x00~\x00~\x00~\x00~\x00~\x00~\x00~\x00~\x00~\x00~\x00~\x00~\x00~\x00~\x00~\x00~\x00~\x00~\x00~\x00~\x00~\x00~\x00~\x00~\x00~\x00~\x00~\x00~\x00~\x00~\x00~\x00~\x00~\x00~\x00~\x00~\x00~\x00~\x00~\x00~\x00~\x00~\x00~\x00~\x00~\x00~\x00~\x00~'
tbsS'platform'
p686
(dp687
S'opengl'
p688
S'4.2.0 - Build 10.18.10.3496'
p689
sS'python'
p690
S'2.7.11'
p691
sS'hardware'
p692
(S'Intel64 Family 6 Model 60 Stepping 3, GenuineIntel'
p693
S'AMD64'
p694
tp695
sS'aibstim'
p696
S'1.04'
p697
sS'pyglet'
p698
S'1.2.4'
p699
sS'os'
p700
(S'Windows'
p701
S'7'
S'6.1.7601'
p702
tp703
sS'psychopy'
p704
S'1.82.01'
p705
ssS'window'
p706
S"Window(allowGUI=False, allowStencil=False, autoLog=True, bitsMode=UNKNOWN, blendMode='avg', color=array([ 0.,  0.,  0.]), colorSpace='rgb', fullscr=UNKNOWN, gamma=None, lms=UNKNOWN, monitor=<psychopy.monitors.calibTools.Monitor instance at 0x00000000095D8A08>, name='window1', pos=[0, 0], screen=0, size=array([1280, 1024]), stereo=False, units='deg', useFBO=False, viewOri=0.0, viewPos=None, viewScale=None, waitBlanking=True, winType='pyglet')"
p707
sS'score'
p708
(lp709
I0
asS'syncsqrcolorsequence'
p710
(lp711
I-1
aI1
asS'stim_on_frame'
p712
NsS'rewardline'
p713
I0
sS'do'
p714
NsS'bg_luminance'
p715
F0
sS'duration_on'
p716
I1
sS'syncpulse'
p717
S'False'
p718
sS'di'
p719
NsS'vsynctimes'
p720
(lp721
sS'repetitions'
p722
I1
sS'volumelimit'
p723
F2.5
sS'triallog'
p724
(lp725
sS'stoptime'
p726
F10.626976089918571
sS'auditory_stimulus_log'
p727
(lp728
sS'dx'
p729
(lp730
Fnan
aFnan
aFnan
aFnan
aFnan
aFnan
aFnan
aFnan
aFnan
aFnan
aFnan
aFnan
aFnan
aFnan
aFnan
aFnan
aFnan
aFnan
aFnan
aFnan
aFnan
aFnan
aFnan
aFnan
aFnan
aFnan
aFnan
aFnan
aFnan
aFnan
aFnan
aFnan
aFnan
aFnan
aFnan
aFnan
aFnan
aFnan
aFnan
aFnan
aFnan
aFnan
aFnan
aFnan
aFnan
aFnan
aFnan
aFnan
aFnan
aFnan
aFnan
aFnan
aFnan
aFnan
aFnan
aFnan
aFnan
aFnan
aFnan
aFnan
aFnan
aFnan
aFnan
aFnan
aFnan
aFnan
aFnan
aFnan
aFnan
aFnan
aFnan
aFnan
aFnan
aFnan
aFnan
aFnan
aFnan
aFnan
aFnan
aFnan
aFnan
aFnan
aFnan
aFnan
aFnan
aFnan
aFnan
aFnan
aFnan
aFnan
aFnan
aFnan
aFnan
aFnan
aFnan
aFnan
aFnan
aFnan
aFnan
aFnan
aFnan
aFnan
aFnan
aFnan
aFnan
aFnan
aFnan
aFnan
aFnan
aFnan
aFnan
aFnan
aFnan
aFnan
aFnan
aFnan
aFnan
aFnan
aFnan
aFnan
aFnan
aFnan
aFnan
aFnan
aFnan
aFnan
aFnan
aFnan
aFnan
aFnan
aFnan
aFnan
aFnan
aFnan
aFnan
aFnan
aFnan
aFnan
aFnan
aFnan
aFnan
aFnan
aFnan
aFnan
aFnan
aFnan
aFnan
aFnan
aFnan
aFnan
aFnan
aFnan
aFnan
aFnan
aFnan
aFnan
aFnan
aFnan
aFnan
aFnan
aFnan
aFnan
aFnan
aFnan
aFnan
aFnan
aFnan
aFnan
aFnan
aFnan
aFnan
aFnan
aFnan
aFnan
aFnan
aFnan
aFnan
aFnan
aFnan
aFnan
aFnan
aFnan
aFnan
aFnan
aFnan
aFnan
aFnan
aFnan
aFnan
aFnan
aFnan
aFnan
aFnan
aFnan
aFnan
aFnan
aFnan
aFnan
aFnan
aFnan
aFnan
aFnan
aFnan
aFnan
aFnan
aFnan
aFnan
aFnan
aFnan
aFnan
aFnan
aFnan
aFnan
aFnan
aFnan
aFnan
aFnan
aFnan
aFnan
aFnan
aFnan
aFnan
aFnan
aFnan
aFnan
aFnan
aFnan
aFnan
aFnan
aFnan
aFnan
aFnan
aFnan
aFnan
aFnan
aFnan
aFnan
aFnan
aFnan
aFnan
aFnan
aFnan
aFnan
aFnan
aFnan
aFnan
aFnan
aFnan
aFnan
aFnan
aFnan
aFnan
aFnan
aFnan
aFnan
aFnan
aFnan
aFnan
aFnan
aFnan
aFnan
aFnan
aFnan
aFnan
aFnan
aFnan
aFnan
aFnan
aFnan
aFnan
aFnan
aFnan
aFnan
aFnan
aFnan
aFnan
aFnan
aFnan
aFnan
aFnan
aFnan
aFnan
aFnan
aFnan
aFnan
aFnan
aFnan
aFnan
aFnan
aFnan
aFnan
aFnan
aFnan
aFnan
aFnan
aFnan
aFnan
aFnan
aFnan
aFnan
aFnan
aFnan
aFnan
aFnan
aFnan
aFnan
aFnan
aFnan
aFnan
aFnan
aFnan
aFnan
aFnan
aFnan
aFnan
aFnan
aFnan
aFnan
aFnan
aFnan
aFnan
aFnan
aFnan
aFnan
aFnan
aFnan
aFnan
aFnan
aFnan
aFnan
aFnan
aFnan
aFnan
aFnan
aFnan
aFnan
aFnan
aFnan
aFnan
aFnan
aFnan
aFnan
aFnan
aFnan
aFnan
aFnan
aFnan
aFnan
aFnan
aFnan
aFnan
aFnan
aFnan
aFnan
aFnan
aFnan
aFnan
aFnan
aFnan
aFnan
aFnan
aFnan
aFnan
aFnan
aFnan
aFnan
aFnan
aFnan
aFnan
aFnan
aFnan
aFnan
aFnan
aFnan
aFnan
aFnan
aFnan
aFnan
aFnan
aFnan
aFnan
aFnan
aFnan
aFnan
aFnan
aFnan
aFnan
aFnan
aFnan
aFnan
aFnan
aFnan
aFnan
aFnan
aFnan
aFnan
aFnan
aFnan
aFnan
aFnan
aFnan
aFnan
aFnan
aFnan
aFnan
aFnan
aFnan
aFnan
aFnan
aFnan
aFnan
aFnan
aFnan
aFnan
aFnan
aFnan
aFnan
aFnan
aFnan
aFnan
aFnan
aFnan
aFnan
aFnan
aFnan
aFnan
aFnan
aFnan
aFnan
aFnan
aFnan
aFnan
aFnan
aFnan
aFnan
aFnan
aFnan
aFnan
aFnan
aFnan
aFnan
aFnan
aFnan
aFnan
aFnan
aFnan
aFnan
aFnan
aFnan
aFnan
aFnan
aFnan
aFnan
aFnan
aFnan
aFnan
aFnan
aFnan
aFnan
aFnan
aFnan
aFnan
aFnan
aFnan
aFnan
aFnan
aFnan
aFnan
aFnan
aFnan
aFnan
aFnan
aFnan
aFnan
aFnan
aFnan
aFnan
aFnan
aFnan
aFnan
aFnan
aFnan
aFnan
aFnan
aFnan
aFnan
aFnan
aFnan
aFnan
aFnan
aFnan
aFnan
aFnan
aFnan
aFnan
aFnan
aFnan
aFnan
aFnan
aFnan
aFnan
aFnan
aFnan
aFnan
aFnan
aFnan
aFnan
aFnan
aFnan
aFnan
aFnan
aFnan
aFnan
aFnan
aFnan
aFnan
aFnan
aFnan
aFnan
aFnan
aFnan
aFnan
aFnan
aFnan
aFnan
aFnan
aFnan
aFnan
aFnan
aFnan
aFnan
aFnan
aFnan
aFnan
aFnan
aFnan
aFnan
aFnan
aFnan
aFnan
aFnan
aFnan
aFnan
aFnan
aFnan
aFnan
aFnan
aFnan
aFnan
aFnan
aFnan
aFnan
aFnan
aFnan
aFnan
aFnan
aFnan
aFnan
aFnan
aFnan
aFnan
aFnan
aFnan
aFnan
aFnan
aFnan
aFnan
aFnan
aFnan
aFnan
aFnan
aFnan
aFnan
aFnan
aFnan
aFnan
aFnan
aFnan
aFnan
aFnan
aFnan
aFnan
aFnan
aFnan
aFnan
aFnan
aFnan
aFnan
aFnan
aFnan
aFnan
aFnan
aFnan
aFnan
aFnan
aFnan
aFnan
aFnan
aFnan
aFnan
aFnan
aFnan
aFnan
aFnan
aFnan
aFnan
aFnan
aFnan
aFnan
aFnan
aFnan
aFnan
aFnan
aFnan
aFnan
aFnan
aFnan
aFnan
aFnan
aFnan
aFnan
aFnan
aFnan
aFnan
aFnan
aFnan
aFnan
aFnan
aFnan
aFnan
aFnan
aFnan
aFnan
aFnan
aFnan
aFnan
aFnan
aFnan
asS'right_response_time'
p731
F-inf
sS'starttime'
p732
F2.2807898858445697e-06
sS'trialvars'
p733
NsS'syncsqrloc'
p734
(I910
I-450
tp735
sS'sync'
p736
S"SyncSquare(autoDraw=False, autoLog=True, color=array([-1., -1., -1.]), colorSpace='rgb', contrast=1.0, depth=0, interpolate=False, mask='none', maskParams=None, name='unnamed SyncSquare', opacity=1.0, ori=0.0, phase=array([ 0.,  0.]), pos=array([ 910., -450.]), rgbPedestal=array([ 0.,  0.,  0.]), sf=array([ 0.01,  0.01]), size=array([ 100.,  100.]), tex=None, texRes=128, units='pix', win=Window(...))"
p737
sS'next_trial_time'
p738
F-inf
sS'field_size'
p739
(I200
I200
tp740
sS'syncsqrfreq'
p741
I60
sS'decision'
p742
I00
sS'trial_hold'
p743
I00
sS'rewardlines'
p744
(lp745
I0
asS'trait_names'
p746
(lp747
sS'wwidth'
p748
cnumpy.core.multiarray
scalar
p749
(g660
(S'i4'
I0
I1
tRp750
(I3
S'<'
NNNI-1
I-1
I0
tbS'\x00\x05\x00\x00'
tRp751
sS'startdatetime'
p752
S'2016-07-18 10:28:43.560000'
p753
sS'syncsqrBit'
p754
I00
sS'keycontrol'
p755
I01
sS'eyedatalog'
p756
(lp757
sS'process_response'
p758
I00
sS'mouseid'
p759
S'testmouse'
p760
sS'invertdo'
p761
I00
sS'doport'
p762
I1
sS'rewardlimit'
p763
NsS'num_dots'
p764
I20
sS'performanceport'
p765
I9998
sS'lapdata'
p766
(dp767
S'commands'
p768
(lp769
sS'object'
p770
NsS'iscorrect'
p771
NsS'lickdata'
p772
NsS'laptime'
p773
NsS'posx'
p774
NsS'reward'
p775
(lp776
ssS'vsyncintervals'
p777
g657
(g658
(I0
tS'b'
tRp778
(I1
(L637L
tg660
(S'f8'
I0
I1
tRp779
(I3
S'<'
NNNI-1
I-1
I0
tbI00
S'\x00X\x1b8\xea\xa90@\x00\xb8\xf68\xf1\xbb0@\x00P\x1c\xa5=\xc30@\x00pe{<\xa80@\x00\x18x\xe5\x8b\x840@\x00\x18\xc5o\xd8\xce0@\x00\xd8\x03+\x04\xb20@\x00\xf0|\x88"\xa00@\x00\xd8?\x0f\xf0\xa00@\x00\x80\x91\x02\\\xb10@\x00\x88a{<\xa80@\x00\xa86\xe7\x99\xa80@\x00\x98a\x0f\xb6\xa30@\x00\x10\xe2`\x81\xb10@\x00`\xc0\xf44\xaa0@\x00\xe0\xc6\xd9\xc4\xa90@\x00(\xc4\xccA\xb30@\x00\xe0\x8a\xf5\xd8\xba0@\x00(\xf2\xaf\xfd\x8b0@\x00\x10\xc4n\x0b\xba0@\x00\x08[\x96\xac\xa80@\x00(\xe2\xbe\xb7\xaa0@\x00\x08\xf2\x87\n\x950@\x00\xb0\xd9\xb3\xce\xdd0@\x00\xb0\x16Q\xc0\x800@\x00\x98\x9e*\xb2\xa90@\x00\x10=n\xf3\xae0@\x00\x08[\x96\xac\xa80@\x00\xe0\x14\x1d\x17\xa80@\x00\xf0\xd37^\xa40@\x00\xe0\x03\xf5\xc0\xaf0@\x008\x87E\xbf\xa80@\x00`\x83\xd98\xa40@\x00P\xb3\x96\x9b\xaf0@\x00\xc0\xf5\xcb\x9d\xa20@\x00\xd0}\x97?\xc00@\x00\xa0\x9e\xf4n\xa70@\x00\xa8$\x883\x990@\x008\x94\x0f\xdf\xa70@\x008Yb\x03\xd00@\x00\x00|\xe5\x8b\x840@\x00\xb8\x13\xf4V\x9c0@\x00\xc8\xb9\xb1n\xb10@\x00\xa8C\xb1\xb9\xa70@\x00@\x86\xd8k\x8f0@\x00\xb0\x07\x97\x8a\xb60@\x00(\xb3\xa4\xeb\xba0@\x00\x90\xf9mg\xa90@\x00X9*`\xa10@\x00pTS\xe6\xaf0@\x00p\nn\xca\xaa0@\x00\xa0\xbc\xe6\xe4\x9e0@\x00H\x94\xa3X\xa30@\x00X\x1b8\xea\xa90@\x00\x98\x18a\xaa\xb50@\x00\x18J\x02\xd0\xab0@\x00\xd8o`\xcc\xa70@\x00\xd0!S\xbd\xab0@\x00\x80\xcd\xe6G\xa00@\x00\x885\x88\x96\x9a0@\x00(\x88\xe8U\xc40@\x00H\x1c\xdb\x80\xc50@\x00\xb0\x8d`\x92\xaa0@\x008v\x1di\xb00@\x00@\xef\xe6\r\xa30@\x00\xa0\x9e\xf4n\xa70@\x00\xb82\x1d\xdd\xaa0@\x00\x00\xa9\x0fB\xa90@\x00\x08[\x96\xac\xa80@\x00\xf8\x10\x1d\x17\xa80@\x000\xe2\x88t\xa80@\x00\xa0\xe8\xd9\x8a\xac0@\x00\xd8|*\xec\xa60@\x00\xe8\xc6\xa3\x81\xa70@\x00\xc8o\xccR\xac0@\x00\xf8\x89\x1c\xff\x9c0@\x00h\xc0\xbe\xf1\xa70@\x00H\xfcz\xea\x9f0@\x00\x18\x1fF:\xb50@\x00\xe8@\xday\xb30@\x00(J\x96I\xa70@\x00\x000\x10Z\xb40@\x00P\xa175\xa00@\x00\x88T\xb1\x1c\xa90@\x00\x906\x89c\xaf0@\x00\xf0.E\xd0\xa10@\x008,8M\xab0@\x00X\xfc\x0ed\x9b0@\x000J`\x06\xa50@\x00 =\x02m\xaa0@\x00 \x1f\x10\xf7\xb20@\x00\xd0\x9aR\xa5\xa00@\x00\xe0!\xe76\xa70@\x00\xa8\xe8\xa3G\xaa0@\x00x\x918\x9f\xb30@\x00`\xfc\xd8 \x990@\x008\xf0Sa\xbc0@\x00\xc02\xe7\x99\xa80@\x00\xc0\xd7\xd9\'\xab0@\x00Hv\xb1\xe2\xab0@\x00\x80\n\x02D\xa60@\x00(J\x96I\xa70@\x00\x90\xaf\x88K\xa40@\x00\x10\xe2`\x81\xb10@\x00\xf0^\x96\xac\xa80@\x00P\xc0`\xbb\xae0@\x00\xb8\xf5\x01\xe1\xa40@\x00\x88\xaf\xbe\x8e\xa60@\x00P\xdeR1\xa60@\x00 \xe2\xf4\xfa\xac0@\x00`\xc0\xf44\xaa0@\x00\x80\x91\x02\\\xb10@\x00\xf8.\x0f\x8d\x9f0@\x00\xf0\xc6m>\xa50@\x00\x10/m\xc3\x980@\x00\xe8\xd4\xa4\xb1\xbd0@\x00\x88G\xe7\xfc\xa90@\x00\x80T\xe7_\xab0@\x00\x10[`i\xa60@\x00 J\xcc\x8c\xa90@\x00`\xde\xe6\xaa\xa10@\x00xGS\x83\xae0@\x00P9`\xa3\xa30@\x00\xa8%\xbfC\xb00@\x00\xc0l]ei0@\x00p\nn\xca\xaa0@\x00\xa8C\xb1\xb9\xa70@\x00@\xd1\xf4\x97\xab0@\x00\xc82\xb1V\xa60@\x00\xb0on\x1c\xb30@\x00\xc0o\x02\x96\xae0@\x00\x906\x89c\xaf0@\x00\xa8C\xb1\xb9\xa70@\x00 \r\xb1\x90\xa30@\x00\x90\xf9mg\xa90@\x00@,\x02\n\xa90@\x00\xd8!\x1dz\xa90@\x00\xa0C\xe7\xfc\xa90@\x00\xc82\xb1V\xa60@\x00X\xc0*x\xac0@\x00`\x1b\x02\xa7\xa70@\x00\x00\xc7\x01\xb8\xa00@\x00\xf8\xd3\x01\x1b\xa20@\x00he\xb1\x7f\xaa0@\x00\x18=8\xb0\xac0@\x00\x00\xf3\xf4]\xae0@\x00\xd8?\x0f\xf0\xa00@\x00\xf8\x8aS\x0f\xb40@\x00\xa0\xbc\xe6\xe4\x9e0@\x008X+\xf3\xb80@\x008h\x1c9\x9a0@\x00h\x91\xa4%\xb80@\x00\xd8|*\xec\xa60@\x00@\xef\xe6\r\xa30@\x00 [\xf4\xe2\xa10@\x00\xd8!\x1dz\xa90@\x000[\x88\\\x9d0@\x00\xc0\xd8\x108\xc20@\x00(\xef\x88\xd7\xa90@\x00h\x1b\xccc\xa50@\x00X\xa1\x01\xf2\x9d0@\x00\x08[\x96\xac\xa80@\x00\x80\x91\x02\\\xb10@\x00 [\xf4\xe2\xa10@\x00Pv{\x9f\xa90@\x00\x88a{<\xa80@\x00\x10\xf3\x88\xd7\xa90@\x00\xa8\x06\x96\xbd\xa10@\x00h\xdf\xe7w\xb60@\x00\xe8\xd3m\xa1\xa60@\x00x\x84n\x7f\xb40@\x00\x10\x98{e\xac0@\x00\x00\x11\xe7\xd3\xa50@\x00\xd0|`/\xa90@\x00\xc0\x8d\xf4\x0b\xa60@\x00\x90\x9e`\xf5\xab0@\x00`\xc0\xf44\xaa0@\x00\x88a{<\xa80@\x00Pv{\x9f\xa90@\x00\xf8\x03S\xf7\xa80@\x00\x88T\xb1\x1c\xa90@\x00\xb82\x1d\xdd\xaa0@\x00x\xbebU\xd80@\x00p\x1a_\x10\x8c0@\x00H\x1c\xdb\x80\xc50@\x00\x88\xae\x87~\x8f0@\x00\x90\x9f\x97\x05\xc30@\x00\x98\xf8\x00\x14\x900@\x000\xdfaN\xc60@\x00\xc8\xc9\xa2\xb4\x920@\x00H:\xcd\xf6\xbc0@\x00\xe8^\xcc\xef\xaa0@\x00\xb0\x13*\x9a\x9e0@\x00\x98sn\x1c\xb30@\x00@9\xcc)\xa80@\x00\xe8k\x96\x0f\xaa0@\x00@\xd1\xf4\x97\xab0@\x00(=\xcc)\xa80@\x00`\xde\xe6\xaa\xa10@\x00\x00\x98\xe7\xeb\xb00@\x00@9\xcc)\xa80@\x008\x87E\xbf\xa80@\x008\x87E\xbf\xa80@\x00x\xcb\xaejt0@\x00X\x1d\xa6\n\xd80@\x00\x90\xe8E\x11\xb10@\x00\xa0\x9e\xf4n\xa70@\x00\x18\x98E"\xaa0@\x00\x88T\xb1\x1c\xa90@\x00\xf8\x10\x1d\x17\xa80@\x000\xe2\x88t\xa80@\x00\x18\xa5\x0fB\xa90@\x000\x87{\x02\xab0@\x00\xf8\x10\x1d\x17\xa80@\x00\xa8\xe8\xa3G\xaa0@\x00\x98TE\x96\xa40@\x00\x88\x9e\x968\xae0@\x00Pv{\x9f\xa90@\x00\xc8\xd7\xa3\xe4\xa80@\x00\x80\n\x02D\xa60@\x00@\xde\xbe\xb7\xaa0@\x00\xb0\xe8m\x04\xa80@\x00\xa0\xbc\xe6\xe4\x9e0@\x00h\x1b\xccc\xa50@\x008\xb2\x01U\x9f0@\x00\x10\xa6|\x95\xc20@\x00\xe0\x14\x1d\x17\xa80@\x00hr{\x9f\xa90@\x00\xd0\x14\x89\x9d\xac0@\x00\xf0\xc6m>\xa50@\x00\xd8\xc6\x0f\x08\xac0@\x00(\x98\xd9\x9b\xa50@\x000\x94E"\xaa0@\x008,8M\xab0@\x00@,\x02\n\xa90@\x00\xa0\x9e\xf4n\xa70@\x00\x10\xa5E\x85\xab0@\x00\xf0^\x96\xac\xa80@\x00@\r\xd9\x83\x9a0@\x00(h\x88\xbf\x9e0@\x00`\xc1+E\xc10@\x00\x90\x068\x87\xa80@\x00\xa0\xf8\xca\xd0\x8d0@\x00P\xd0Q\x01\x900@\x00\xf8\x89\x1c\xff\x9c0@\x00\xb0\x8d`\x92\xaa0@\x00\x80\xec\x0f\xce\xae0@\x00\x88\x17\x96 \xa30@\x00H\xd1\xbeT\xa90@\x00\xf8Z\x023\xad0@\x00\xa8\x9e\xbe+\xa50@\x00H\xd1\xbeT\xa90@\x00\xd0!S\xbd\xab0@\x008\xe2R1\xa60@\x00\x08[\x96\xac\xa80@\x00H\xd1\xbeT\xa90@\x00X\xec\x1d\x1e\xba0@\x00\x88\t\x95\xf0\x8c0@\x00p\xec{T\xb30@\x00 i\xf5\x12\xb80@\x008\x86\x0e\xaf\x910@\x00X\x1co\xfa\xc00@\x00\x08[\x96\xac\xa80@\x00\x10\xb6m\xdb\xa30@\x00\x98C\x1d@\xac0@\x00\x00\xa9\x0fB\xa90@\x00\xc8\xd6l\xd4\x910@\x00\x00N\x02\xd0\xab0@\x00 \xe2\xf4\xfa\xac0@\x00\x80\xf9\xd9\xed\xad0@\x00\xe0\xb9\x0f\xa5\xaa0@\x00\x98\xab\xf4\xd1\xa80@\x00\x00\xf3\xf4]\xae0@\x00\x18[*&\xa40@\x00\x10\x98{e\xac0@\x00\x00/\xd9I\x9d0@\x00\x10\x98{e\xac0@\x00 \xa6\x10\x0f\xbe0@\x00(J\x96I\xa70@\x00\x98\x9e*\xb2\xa90@\x00\xf8\x03S\xf7\xa80@\x008\x94\x0f\xdf\xa70@\x00\xa8\xe8\xa3G\xaa0@\x00@,\x02\n\xa90@\x00\x90\xf9mg\xa90@\x00\x80\xaf\xf4\xd1\xa80@\x00\x10\xd4_Q\x9b0@\x00 \xa5\xd9\xfe\xa60@\x00 \x01\x1e\x81\xbb0@\x000\xefR\x94\xa70@\x00\x10\xf3\x88\xd7\xa90@\x00`\xcd\xbeT\xa90@\x00\x18\xf3R\x94\xa70@\x00\x90\x7f7o\x9d0@\x00\xc8\x8d\xbe\xc8\xa30@\x00\xa0\x07\x03\x11\xbb0@\x00\xe0\xc6\xd9\xc4\xa90@\x00\xe0\xb8\xd8\x94\x930@\x00\x80\xbd\xf5\x01\xbf0@\x00\x10\xf3\x88\xd7\xa90@\x00\x98RU\x80\xd90@\x000\x87{\x02\xab0@\x00XvE\\\xa70@\x00\xf8\xa8E\x85\xab0@\x00\x90aE\xf9\xa50@\x00`\xfd\x0f1\xb00@\x00\x18h\xf4E\xa30@\x00pFR\xb6\x990@\x00\x80\xa2*\xb2\xa90@\x00\xd8!\x1dz\xa90@\x00\xe0^\x023\xad0@\x00x5\xf4\x1c\x9f0@\x00P\xfe\xb2\xc7\xcb0@\x00\x98\x17*\x9a\x9e0@\x00\xc82\xb1V\xa60@\x00\xa0C\xe7\xfc\xa90@\x00H\xde\x88t\xa80@\x00\xe8^\xcc\xef\xaa0@\x00\x98\x06\x02D\xa60@\x00\x18=8\xb0\xac0@\x00`\x1b\x02\xa7\xa70@\x00\x88T\xb1\x1c\xa90@\x00\xa0C\xe7\xfc\xa90@\x00\x00\xb6\xd9a\xa80@\x00\xb8%S\xbd\xab0@\x00\x00\xb6\xd9a\xa80@\x00\xa8C\xb1\xb9\xa70@\x00\xb82\x1d\xdd\xaa0@\x00\x90\xf9mg\xa90@\x00\xf0/|\xe0\xb80@\x008\x1e7\x1d\x950@\x00\xf0\\\xa6\x96\xdd0@\x00\xe0\xb7\xa1\x84|0@\x00\x10[`i\xa60@\x00@\xd0\xbd\x87\x940@\x00X:ap\xb80@\x00(\xef\x88\xd7\xa90@\x00\x18\x98E"\xaa0@\x00\xb0\x8d`\x92\xaa0@\x00\x80T\xe7_\xab0@\x00\xb0C{v\xa50@\x00 =\x02m\xaa0@\x000,n\x90\xad0@\x00(\xa5\xa3\xbb\xa40@\x00\xd0\x14\x89\x9d\xac0@\x00\x90\x068\x87\xa80@\x00\x00N\x02\xd0\xab0@\x00\x18\xc5o\xd8\xce0@\x00(\xd3\x86w}0@\x00`r\xb1\xe2\xab0@\x00\xa0\x91*O\xa80@\x00\xc8\xd7\xa3\xe4\xa80@\x00\xe0\xc6\xd9\xc4\xa90@\x00 <\xcb\\\x930@\x00\x10\x01\x8a\x07\xc00@\x00\xc8\x13\x88\xd0\x970@\x00\xa0\xdb\x0fk\xad0@\x00\x18[*&\xa40@\x00 \xe2\xf4\xfa\xac0@\x00\xb8\x8d*O\xa80@\x00\xd8|*\xec\xa60@\x00 \x0e\xe8\xa0\xba0@\x00\x90\x9e`\xf5\xab0@\x000=\x96\xe6\xa50@\x00\x18\xa5\x0fB\xa90@\x00\xb0\xc9D~\x990@\x00\xb0`6\xdc\x850@\x00\x00\xa9\x0fB\xa90@\x00`\xcd\xbeT\xa90@\x008\x87E\xbf\xa80@\x00\xb0\x8d`\x92\xaa0@\x00\xa0\xda\xd8Z\x960@\x00\x18\\a6\xbb0@\x00X(\x02\n\xa90@\x00\xf8\xc67\xfb\xa20@\x00\xa0\x80\x02\xf9\xaf0@\x00\xb82\x1d\xdd\xaa0@\x00\xa0\x9e\xf4n\xa70@\x00\x08\x97z\x98\x970@\x00\x98bF\xc6\xba0@\x00\x98\x9e*\xb2\xa90@\x000\xe2\x88t\xa80@\x00H\xd1\xbeT\xa90@\x00\x905RS\x980@\x00XG+\x90\xb70@\x00\xa0\xe8\xd9\x8a\xac0@\x00H\xd1\xbeT\xa90@\x00\xe8\xc6\xa3\x81\xa70@\x00\xa8\xe8\xa3G\xaa0@\x00\x00\x8a\xe6\xbb\x9a0@\x00@K+\x90\xb70@\x00hr{\x9f\xa90@\x00\xa8\xdb\xd9\'\xab0@\x00\xd0\xe47\xc1\xa50@\x00he\xb1\x7f\xaa0@\x00@\xd1\xf4\x97\xab0@\x00(=\xcc)\xa80@\x00\x80\xbc\xbe\xf1\xa70@\x00\xb8\x80`/\xa90@\x00\xc8\xd7\xa3\xe4\xa80@\x00\x10\x00S\xf7\xa80@\x00\xc8\xd7\xa3\xe4\xa80@\x00he\xb1\x7f\xaa0@\x00x\n8\x87\xa80@\x00\x88T\xb1\x1c\xa90@\x00\xe0\xc6\xd9\xc4\xa90@\x00\xe0\x14\x1d\x17\xa80@\x00\xf0j)\xbc\x900@\x00`G\xf5L\xb50@\x00\x08\xb6\xa3\x1e\xa60@\x00 \\+\xf3\xb80@\x00\xd0\xf4(\x07\x870@\x00 \xd2\x03\xb5\xcb0@\x00\x10yR\xdf\x9d0@\x00\x08M\x95|\x920@\x000\x1e\xebj\xfa0@\x00\xb0\xaa\x0c\xff\xcf4@\x000\xe5\x8c\n\xae(@\x00\xc0\x07+\x04\xb20@\x00h\x90m\x15\xa10@\x00\xd8|*\xec\xa60@\x00Hx\x1f\x03\xda0@\x00\x88\xdaz$\x9d0@\x00(\x96k{w0@\x00 \xa5\xd9\xfe\xa60@\x00(\x96\xe9\x85\xda0@\x00\xc0o\x02\x96\xae0@\x00\x10\x11{M\xa10@\x00\xf0k`\xcc\xa70@\x00 \xe2\xf4\xfa\xac0@\x00\x08[\x96\xac\xa80@\x00\xc0\x8d\xf4\x0b\xa60@\x00\x90\xf9mg\xa90@\x00\x90\xdaD\xe1\x9a0@\x00\xe8\x04\xf6\x8d\xc40@\x00hF\x88\xf9\x9b0@\x00\x10\x98{e\xac0@\x00(\x87\xb1E\xad0@\x00\x80\x91\x02\\\xb10@\x00\xd8!\x1dz\xa90@\x00\xf0\x03\x89:\xab0@\x00 J\xcc\x8c\xa90@\x00\xb8\x8d*O\xa80@\x00\x18\x98E"\xaa0@\x00h\xa1\x95k\x990@\x00x\x17\x02\xa7\xa70@\x00h\x0b\xdb\x1d\xc40@\x00x\x837o\x9d0@\x00\xc8|\x96r\xab0@\x00x\x0bo\x97\xbf0@\x00\xb83T\xed\xc10@\x00\x88\x81]\xc8j0@\x00\xb8\x8d*O\xa80@\x008\x94\x0f\xdf\xa70@\x00X\x1b8\xea\xa90@\x00(\xe2\xbe\xb7\xaa0@\x00p\xec{T\xb30@\x00P\xc0`\xbb\xae0@\x00\xe8k\x96\x0f\xaa0@\x00\xe8\xb9\xd9a\xa80@\x00hr{\x9f\xa90@\x00@,\x02\n\xa90@\x00\x08N\xcc\x8c\xa90@\x00\x10\x00S\xf7\xa80@\x00\xa0C\xe7\xfc\xa90@\x00\xf0\xc6m>\xa50@\x00\xf0?m&\x9a0@\x00P\x83E\xbf\xa80@\x00x\xceS\x9b\xb90@\x00\x88T\xb1\x1c\xa90@\x00\xf8\xb5\x0f\xa5\xaa0@\x00\xe0!\xe76\xa70@\x00x\xa2`\xf5\xab0@\x00\x88\xbc\x88\xae\xa50@\x00\xa0C\xe7\xfc\xa90@\x00\x98\x9e*\xb2\xa90@\x00@\xd1\xf4\x97\xab0@\x00pe{<\xa80@\x00\xb8\x8d*O\xa80@\x00\x18\xa5\x0fB\xa90@\x00\xd8o`\xcc\xa70@\x00x\xaf*\x15\xab0@\x00XU\xae\xb5j0@\x00\x80\x929l\xc80@\x00\xd8\x02\xf4\xf3\x9a0@\x000K\x97\x16\xbc0@\x00\xd0|`/\xa90@\x00P\rm\xfd\x950@\x00\xf0ya\xfc\xbd0@\x00\x08\xa9\xd9\xfe\xa60@\x00p\x178\xea\xa90@\x00\x10\xd4_Q\x9b0@\x00HX\xbfl\xb40@\x00\xd0\xf5_\x17\x9e0@\x00\xf0^\x96\xac\xa80@\x00p\nn\xca\xaa0@\x00H\xde\x88t\xa80@\x00H\xb2\x95\xce\x9a0@\x00\x18\xe4\x98^\xdd0@\x00\xe8]\x95\xdf\x930@\x00p6ap\xb80@\x000<_\xd6\x8e0@\x000\xd2\x97.\xc70@\x00\xe8.{\x13\xa40@\x00xeE\xf9\xa50@\x00\xe8k\x96\x0f\xaa0@\x00\xd8\xb9E\xe8\xac0@\x00\x08\xb6\xa3\x1e\xa60@\x00\x88\xf9\xa3\xaa\xab0@\x00\xa0\xcc\xd7*\x800@\x00 J\xcc\x8c\xa90@\x00\xe0\xc6\xd9\xc4\xa90@\x00`\x1b\x02\xa7\xa70@\x00\xd0|`/\xa90@\x00\xd8!\x1dz\xa90@\x00x\xceS\x9b\xb90@\x008\xe2R1\xa60@\x00\xf0MnV\xb00@\x00\xd8\xd6\x00N\x8d0@\x00\x90c\xb3\x19\xd40@\x000\x86D\xf2\x930@\x00\xd0|`/\xa90@\x00pe{<\xa80@\x00 J\xcc\x8c\xa90@\x00\x10\xf3\x88\xd7\xa90@\x00\xb8\x8d*O\xa80@\x00\x08\xb6\xa3\x1e\xa60@\x00\xa8\x8d\x96\xd5\xac0@\x00\x98\x91`\x92\xaa0@\x008\x94\x0f\xdf\xa70@\x00\x80\xcd\xe6G\xa00@\x00\xc0\xf5\xcb\x9d\xa20@\x00\x88T\xb1\x1c\xa90@\x00h\xec\xb1\x97\xb50@\x00 \x1f\x10\xf7\xb20@\x00\xf0\x89RB\x9f0@\x00P\xb3\x96\x9b\xaf0@\x000\xefR\x94\xa70@\x00\x88T\xb1\x1c\xa90@\x00\xd0|`/\xa90@\x00\xd0\xd7m\xa1\xa60@\x00\xb8%S\xbd\xab0@\x00\x10-}\xad\xcd0@\x00\xd8!\x1dz\xa90@\x00@\x87\x0f|\xa60@\x00\xb8\xe87\xc1\xa50@\x00\x08\xb6\xa3\x1e\xa60@\x00hT\x89)\xb20@\x00\xf8k*\x89\xa50@\x00\x00\xa9\x0fB\xa90@\x00\xd8!\x1dz\xa90@\x00h\xc0\xbe\xf1\xa70@\x008,8M\xab0@\x00\xf0\xf2`\xe4\xb20@\x00\xa8\xbaB\x81n0@\x008x\x8b\x89\xde0@\x00\x18\x00\x1d\xb4\xa60@\x00\xf0\x03\x89:\xab0@\x00\x10[`i\xa60@\x00 \xa5\xd9\xfe\xa60@\x00\xd0\x14\x89\x9d\xac0@\x00\xc0\x8d\xf4\x0b\xa60@\x00\xd8\xc6\x0f\x08\xac0@\x00\x80\xaf\xf4\xd1\xa80@\x00 \xa5\xd9\xfe\xa60@\x00\xa8\xdb\xd9\'\xab0@\x00p\nn\xca\xaa0@\x00\xb0\xe8m\x04\xa80@\x00H9\x96\xe6\xa50@\x00`e\xe7\xc2\xac0@\x000\xe2\x88t\xa80@\x00\x00z\xf5u\xb90@\x00(\xa35\x9bv0@\x000\xf0\x89\xa4\xbe0@\x00 \xf3\x1cQ\xa50@\x00\xe0\xc6\xd9\xc4\xa90@\x00\xe8\x03\xbf}\xad0@\x00\xe8.{\x13\xa40@\x00\x88\xec\xd9\x8a\xac0@\x00\xf8k*\x89\xa50@\x00Pv{\x9f\xa90@\x00\xc8\xd7\xa3\xe4\xa80@\x00\x90\x068\x87\xa80@\x00P\x0e\xa4\r\xad0@\x00\x10[`i\xa60@\x00\xb82\x1d\xdd\xaa0@\x00\xa8\xe8\xa3G\xaa0@\x008\xef\x1cQ\xa50@\x00\xd8\x9bSr\xb50@\x00h\x92\xdb5\xcf0@\x008\xe0\xe4\x10x0@\x00\xc0P\xd9\x0f\xa00@\x00x\x84n\x7f\xb40@\x00\xa0\xab\xbe\x8e\xa60@\x00\xc02\xe7\x99\xa80@\x00he\xb1\x7f\xaa0@\x00\xb8%S\xbd\xab0@\x00\x00\xb6\xd9a\xa80@\x00`\x1b\x02\xa7\xa70@\x00 J\xcc\x8c\xa90@\x00@\xd1\xf4\x97\xab0@\x00@9\xcc)\xa80@\x00\xe8\xb9\xd9a\xa80@\x00\xa0\x9e\xf4n\xa70@\x00@\xde\xbe\xb7\xaa0@\x00X\x947\xd2\x9e0@\x00\xe0@\x10\xbd\xb50@\x00\x88%\x97P\xb90@\x00@,\x02\n\xa90@\x00xeE\xf9\xa50@\x008\x94\x0f\xdf\xa70@\x00\xb0%\x89\x00\xae0@\x00\xf0k`\xcc\xa70@\x00 \xa5\xd9\xfe\xa60@\x00H\xd1\xbeT\xa90@\x00\xc8\xd7\xa3\xe4\xa80@\x00\xd0]7\xa9\x9a0@\x00\x88\x18\xcd0\xba0@\x00\x80\n\x02D\xa60@\x00`\xc0\xf44\xaa0@\x00\xf8.\x0f\x8d\x9f0@\x00xr\x0f\x19\xa50@\x00\xf8\xa8E\x85\xab0@\x00P\xefz\x87\x9e0@\x00\xa8\x8d\x96\xd5\xac0@\x00 i\xf5\x12\xb80@\x00(\x1f\xda\xb3\xb00@\x00 \x00\xe7p\xa40@\x00P\xa175\xa00@\x00\x88\xdb\xb14\xb40@\x00\x00\xa9\x0fB\xa90@\x00x\n8\x87\xa80@\x00\xf8\xb5\x0f\xa5\xaa0@\x00H\xd1\xbeT\xa90@\x00pe{<\xa80@\x00\xc8\xd7\xa3\xe4\xa80@\x00\xe8\xe4\x95\xf7\x9e0@'
tbsS'vsynccount'
p780
I638
sS'response_time'
p781
F-inf
sS'stage'
p782
NsS'keylog'
p783
(lp784
sS'airpuffs'
p785
g657
(g658
(I0
tS'b'
tRp786
(I1
(L0L
tg779
I00
S''
tbsS'trackeyepos'
p787
I00
sS'timer'
p788
NsS'commandrecord'
p789
(lp790
sS'dropped_frame_threshold'
p791
I100
sS'rewardport'
p792
I1
sS'airpuffline'
p793
I1
sS'mask_logged'
p794
I00
sS'trialcount'
p795
I0
sS'encodervsigchannel'
p796
I1
sS'pos'
p797
(I-25
I0
tp798
sS'message_color'
p799
I-1
sS'stim_on_time'
p800
NsS'eyetrackerip'
p801
S'W7DT710861'
p802
sS'stopdatetime'
p803
S'2016-07-18 10:28:54.494000'
p804
sS'publishing'
p805
I00
sS'left_response_time'
p806
F-inf
sS'laps'
p807
g657
(g658
(I0
tS'b'
tRp808
(I1
(L0L
tg779
I00
S''
tbsS'last_frame'
p809
NsS'params'
p810
(dp811
S'performanceip'
p812
S'w7dtmj37pct'
p813
sg739
g740
sg764
I20
sg759
g760
sS'shape_thickness'
p814
I90
sS'duration_off'
p815
I1
sS'dot_size'
p816
I46
sS'show_clock'
p817
I00
sg4
I01
sg716
I1
sg765
I9998
sS'gray_periods'
p818
I1
sg722
I1
sS'eyetracker'
p819
I01
sS'viewing_distance'
p820
I15
sS'eyetrackerIP'
p821
g802
ssS'nidevice'
p822
S'Dev1'
p823
sS'logdir'
p824
S'C:/Users/drewm/Documents/GitHub/psychopy-scripts'
p825
sS'rewards'
p826
g657
(g658
(I0
tS'b'
tRp827
(I1
(L0L
tg779
I00
S''
tbsg818
I1
sS'encoder'
p828
NsS'hide_mouse'
p829
I01
sS'active'
p830
I00
sS'encodervinchannel'
p831
I0
sS'dropped_frame_count'
p832
I1
sS'pub_port'
p833
S'12001'
p834
sS'terrainlog'
p835
(lp836
sS'airpuff'
p837
Nsg814
I90
sS'diport'
p838
I0
sS'ai'
p839
NsS'ip'
p840
S'*'
sS'syncpulselines'
p841
(lp842
I3
aI4
aI5
asg816
I46
sS'ao'
p843
NsS'paused'
p844
I00
sS'threaded_async'
p845
I00
sS'show_text_time'
p846
F-inf
sS'unpickleable'
p847
(lp848
S'datastream'
p849
aS'shapes'
p850
aS'dots'
p851
aS'controlstream'
p852
aS'stimuli'
p853
asS'syncsqr'
p854
I01
sS'wheight'
p855
g749
(g750
S'\x00\x04\x00\x00'
tRp856
sS'fps'
p857
F60
sS'moviefilename'
p858
Nsg812
g813
sS'start_datetime'
p859
NsS'keys'
p860
I00
sg817
I00
sg819
S'<aibs.Eyetracking.EyetrackerClient.Client object at 0x000000000BFBC4E0>'
p861
sS'syncsqrsize'
p862
(I100
I100
tp863
sS'syncpulseport'
p864
I1
sS'lickports'
p865
I1
sS'backupdir'
p866
NsS'task'
p867
S'DetectionOfChange'
p868
sS'responselog'
p869
(lp870
sS'show_stim'
p871
I00
sS'lickSensor'
p872
NsS'rep_port'
p873
I12000
sS'vin'
p874
g657
(g658
(I0
tS'b'
tRp875
(I1
(L638L
tg685
I00
S'\x00~\x00~\x00~\x00~\x00~\x00~\x00~\x00~\x00~\x00~\x00~\x00~\x00~\x00~\x00~\x00~\x00~\x00~\x00~\x00~\x00~\x00~\x00~\x00~\x00~\x00~\x00~\x00~\x00~\x00~\x00~\x00~\x00~\x00~\x00~\x00~\x00~\x00~\x00~\x00~\x00~\x00~\x00~\x00~\x00~\x00~\x00~\x00~\x00~\x00~\x00~\x00~\x00~\x00~\x00~\x00~\x00~\x00~\x00~\x00~\x00~\x00~\x00~\x00~\x00~\x00~\x00~\x00~\x00~\x00~\x00~\x00~\x00~\x00~\x00~\x00~\x00~\x00~\x00~\x00~\x00~\x00~\x00~\x00~\x00~\x00~\x00~\x00~\x00~\x00~\x00~\x00~\x00~\x00~\x00~\x00~\x00~\x00~\x00~\x00~\x00~\x00~\x00~\x00~\x00~\x00~\x00~\x00~\x00~\x00~\x00~\x00~\x00~\x00~\x00~\x00~\x00~\x00~\x00~\x00~\x00~\x00~\x00~\x00~\x00~\x00~\x00~\x00~\x00~\x00~\x00~\x00~\x00~\x00~\x00~\x00~\x00~\x00~\x00~\x00~\x00~\x00~\x00~\x00~\x00~\x00~\x00~\x00~\x00~\x00~\x00~\x00~\x00~\x00~\x00~\x00~\x00~\x00~\x00~\x00~\x00~\x00~\x00~\x00~\x00~\x00~\x00~\x00~\x00~\x00~\x00~\x00~\x00~\x00~\x00~\x00~\x00~\x00~\x00~\x00~\x00~\x00~\x00~\x00~\x00~\x00~\x00~\x00~\x00~\x00~\x00~\x00~\x00~\x00~\x00~\x00~\x00~\x00~\x00~\x00~\x00~\x00~\x00~\x00~\x00~\x00~\x00~\x00~\x00~\x00~\x00~\x00~\x00~\x00~\x00~\x00~\x00~\x00~\x00~\x00~\x00~\x00~\x00~\x00~\x00~\x00~\x00~\x00~\x00~\x00~\x00~\x00~\x00~\x00~\x00~\x00~\x00~\x00~\x00~\x00~\x00~\x00~\x00~\x00~\x00~\x00~\x00~\x00~\x00~\x00~\x00~\x00~\x00~\x00~\x00~\x00~\x00~\x00~\x00~\x00~\x00~\x00~\x00~\x00~\x00~\x00~\x00~\x00~\x00~\x00~\x00~\x00~\x00~\x00~\x00~\x00~\x00~\x00~\x00~\x00~\x00~\x00~\x00~\x00~\x00~\x00~\x00~\x00~\x00~\x00~\x00~\x00~\x00~\x00~\x00~\x00~\x00~\x00~\x00~\x00~\x00~\x00~\x00~\x00~\x00~\x00~\x00~\x00~\x00~\x00~\x00~\x00~\x00~\x00~\x00~\x00~\x00~\x00~\x00~\x00~\x00~\x00~\x00~\x00~\x00~\x00~\x00~\x00~\x00~\x00~\x00~\x00~\x00~\x00~\x00~\x00~\x00~\x00~\x00~\x00~\x00~\x00~\x00~\x00~\x00~\x00~\x00~\x00~\x00~\x00~\x00~\x00~\x00~\x00~\x00~\x00~\x00~\x00~\x00~\x00~\x00~\x00~\x00~\x00~\x00~\x00~\x00~\x00~\x00~\x00~\x00~\x00~\x00~\x00~\x00~\x00~\x00~\x00~\x00~\x00~\x00~\x00~\x00~\x00~\x00~\x00~\x00~\x00~\x00~\x00~\x00~\x00~\x00~\x00~\x00~\x00~\x00~\x00~\x00~\x00~\x00~\x00~\x00~\x00~\x00~\x00~\x00~\x00~\x00~\x00~\x00~\x00~\x00~\x00~\x00~\x00~\x00~\x00~\x00~\x00~\x00~\x00~\x00~\x00~\x00~\x00~\x00~\x00~\x00~\x00~\x00~\x00~\x00~\x00~\x00~\x00~\x00~\x00~\x00~\x00~\x00~\x00~\x00~\x00~\x00~\x00~\x00~\x00~\x00~\x00~\x00~\x00~\x00~\x00~\x00~\x00~\x00~\x00~\x00~\x00~\x00~\x00~\x00~\x00~\x00~\x00~\x00~\x00~\x00~\x00~\x00~\x00~\x00~\x00~\x00~\x00~\x00~\x00~\x00~\x00~\x00~\x00~\x00~\x00~\x00~\x00~\x00~\x00~\x00~\x00~\x00~\x00~\x00~\x00~\x00~\x00~\x00~\x00~\x00~\x00~\x00~\x00~\x00~\x00~\x00~\x00~\x00~\x00~\x00~\x00~\x00~\x00~\x00~\x00~\x00~\x00~\x00~\x00~\x00~\x00~\x00~\x00~\x00~\x00~\x00~\x00~\x00~\x00~\x00~\x00~\x00~\x00~\x00~\x00~\x00~\x00~\x00~\x00~\x00~\x00~\x00~\x00~\x00~\x00~\x00~\x00~\x00~\x00~\x00~\x00~\x00~\x00~\x00~\x00~\x00~\x00~\x00~\x00~\x00~\x00~\x00~\x00~\x00~\x00~\x00~\x00~\x00~\x00~\x00~\x00~\x00~\x00~\x00~\x00~\x00~\x00~\x00~\x00~\x00~\x00~\x00~\x00~\x00~\x00~\x00~\x00~\x00~\x00~\x00~\x00~\x00~\x00~\x00~\x00~\x00~\x00~\x00~\x00~\x00~\x00~\x00~\x00~\x00~\x00~\x00~\x00~\x00~\x00~\x00~\x00~\x00~\x00~\x00~\x00~\x00~\x00~\x00~\x00~\x00~\x00~\x00~\x00~\x00~\x00~\x00~\x00~\x00~\x00~\x00~\x00~\x00~\x00~\x00~\x00~\x00~\x00~\x00~\x00~'
tbsg775
Nsg815
I1
s.